(lp0
(lp1
F0.13822889679788783
aF0.13822889679788783
aF0.13822889679788783
aF0.13822889679788783
aF0.032397722414785265
aF0.13822889679788783
aF0.13822889679788783
aF0.13822889679788783
aI0
aa(lp2
F0.030211541153669697
aF0.19395769176926606
aF0.19395769176926606
aF0.19395769176926606
aI0
aF0.19395769176926606
aF0.19395769176926606
aI0
aI0
aa(lp3
I0
aF0.3254031181696633
aF0.02379064549101012
aF0.3254031181696633
aI0
aI0
aF0.3254031181696633
aI0
aI0
aa(lp4
I0
aI0
aI0
aI0
aI0
aI0
aI0
aI0
aI1
aa(lp5
I0
aI0
aI0
aI0
aI0
aI0
aI0
aI1
aI0
aa(lp6
I0
aI0
aI0
aI0
aI0
aI1
aI0
aI0
aI0
aa(lp7
I0
aI0
aI0
aI0
aI0
aI0
aI1
aI0
aI0
aa(lp8
F0.13822889679788783
aF0.032397722414785265
aI0
aF0.13822889679788783
aF0.13822889679788783
aF0.13822889679788783
aF0.13822889679788783
aF0.13822889679788783
aF0.13822889679788783
aa(lp9
F0.030211541153669697
aI0
aI0
aF0.19395769176926606
aF0.19395769176926606
aF0.19395769176926606
aI0
aF0.19395769176926606
aF0.19395769176926606
aa(lp10
I0
aI0
aI0
aF0.02379064549101012
aF0.3254031181696633
aI0
aI0
aF0.3254031181696633
aF0.3254031181696633
aa(lp11
I0
aI0
aI1
aI0
aI0
aI0
aI0
aI0
aI0
aa(lp12
I0
aI0
aI0
aI0
aI0
aI0
aI1
aI0
aI0
aa(lp13
I0
aI0
aI0
aI0
aI0
aI1
aI0
aI0
aI0
aa(lp14
I0
aI0
aI0
aI0
aI0
aI0
aI0
aI0
aI1
aa(lp15
F0.032397722414785265
aF0.13822889679788783
aF0.13822889679788783
aF0.13822889679788783
aF0.13822889679788783
aF0.13822889679788783
aF0.13822889679788783
aI0
aF0.13822889679788783
aa(lp16
I0
aI0
aF0.030211541153669697
aF0.19395769176926606
aF0.19395769176926606
aF0.19395769176926606
aF0.19395769176926606
aI0
aF0.19395769176926606
aa(lp17
I0
aI0
aI0
aF0.3254031181696633
aF0.3254031181696633
aF0.3254031181696633
aI0
aI0
aF0.02379064549101012
aa(lp18
I0
aI0
aI0
aI0
aI0
aI0
aI0
aI1
aI0
aa(lp19
I0
aI1
aI0
aI0
aI0
aI0
aI0
aI0
aI0
aa(lp20
I0
aI0
aI0
aI0
aI0
aI0
aI1
aI0
aI0
aa(lp21
I0
aI0
aI0
aI0
aI1
aI0
aI0
aI0
aI0
aa(lp22
I0
aF0.13822889679788783
aF0.13822889679788783
aF0.13822889679788783
aF0.13822889679788783
aF0.13822889679788783
aF0.032397722414785265
aF0.13822889679788783
aF0.13822889679788783
aa(lp23
I0
aI0
aF0.19395769176926606
aF0.19395769176926606
aF0.19395769176926606
aF0.19395769176926606
aI0
aF0.030211541153669697
aF0.19395769176926606
aa(lp24
I0
aI0
aF0.3254031181696633
aF0.02379064549101012
aF0.3254031181696633
aF0.3254031181696633
aI0
aI0
aI0
aa(lp25
I1
aI0
aI0
aI0
aI0
aI0
aI0
aI0
aI0
aa(lp26
I0
aI1
aI0
aI0
aI0
aI0
aI0
aI0
aI0
aa(lp27
I0
aI0
aI0
aI0
aI0
aI0
aI0
aI0
aI1
aa(lp28
I0
aI0
aI0
aI0
aI1
aI0
aI0
aI0
aI0
aa(lp29
F0.1396201920192497
aI0
aF0.1396201920192497
aF0.1396201920192497
aF0.1396201920192497
aF0.022658655865252272
aF0.1396201920192497
aF0.1396201920192497
aF0.1396201920192497
aa(lp30
F0.19682791393453197
aI0
aF0.01586043032734008
aF0.19682791393453197
aF0.19682791393453197
aI0
aF0.19682791393453197
aI0
aF0.19682791393453197
aa(lp31
I0
aI1
aI0
aI0
aI0
aI0
aI0
aI0
aI0
aa(lp32
I0
aI0
aI0
aI0
aI0
aI0
aI0
aI1
aI0
aa(lp33
I0
aI0
aI0
aI0
aI1
aI0
aI0
aI0
aI0
aa(lp34
I0
aI0
aI0
aI1
aI0
aI0
aI0
aI0
aI0
aa(lp35
I1
aI0
aI0
aI0
aI0
aI0
aI0
aI0
aI0
aa(lp36
I0
aI0
aI0
aI0
aI0
aI1
aI0
aI0
aI0
aa(lp37
I0
aI0
aI0
aI0
aI0
aI0
aI1
aI0
aI0
aa(lp38
F0.12042111175049498
aF0.12042111175049498
aF0.12042111175049498
aF0.12042111175049498
aF0.036631105996040074
aF0.12042111175049498
aF0.12042111175049498
aF0.12042111175049498
aF0.12042111175049498
aa(lp39
F0.16049567192099326
aF0.16049567192099326
aF0.0370259684740403
aI0
aI0
aF0.16049567192099326
aF0.16049567192099326
aF0.16049567192099326
aF0.16049567192099326
aa(lp40
I0
aF0.2409365376538991
aI0
aI0
aI0
aF0.2409365376538991
aF0.2409365376538991
aF0.2409365376538991
aF0.03625384938440364
aa(lp41
I0
aF0.48413956967265986
aI0
aI0
aI0
aI0
aF0.48413956967265986
aF0.03172086065468016
aI0
aa(lp42
I1
aI0
aI0
aI0
aI0
aI0
aI0
aI0
aI0
aa(lp43
I0
aI0
aI1
aI0
aI0
aI0
aI0
aI0
aI0
aa(lp44
I0
aI1
aI0
aI0
aI0
aI0
aI0
aI0
aI0
aa(lp45
F0.12140025306502385
aF0.12140025306502385
aF0.12140025306502385
aF0.12140025306502385
aF0.12140025306502385
aF0.12140025306502385
aF0.12140025306502385
aF0.12140025306502385
aF0.028797975479809123
aa(lp46
I0
aF0.1623507322161424
aF0.1623507322161424
aF0.1623507322161424
aF0.025895606703145453
aF0.1623507322161424
aF0.1623507322161424
aF0.1623507322161424
aI0
aa(lp47
I0
aF0.24524187090179797
aI0
aF0.019032516392808098
aI0
aF0.24524187090179797
aF0.24524187090179797
aF0.24524187090179797
aI0
aa(lp48
F0.13697000082206498
aF0.13697000082206498
aF0.13697000082206498
aI0
aF0.041209994245545084
aF0.13697000082206498
aF0.13697000082206498
aF0.13697000082206498
aF0.13697000082206498
aa(lp49
F0.04319696321971368
aF0.19136060735605726
aF0.19136060735605726
aI0
aI0
aI0
aF0.19136060735605726
aF0.19136060735605726
aF0.19136060735605726
aa(lp50
I0
aF0.3182275627564985
aF0.3182275627564985
aI0
aI0
aI0
aF0.045317311730504545
aI0
aF0.3182275627564985
aa(lp51
I0
aF0.04758129098202024
aI0
aI0
aI0
aI0
aI0
aI0
aF0.9524187090179798
aa(lp52
I0
aI0
aI0
aI1
aI0
aI0
aI0
aI0
aI0
aa(lp53
I0
aI0
aI0
aI0
aI0
aI1
aI0
aI0
aI0
aa(lp54
I0
aI0
aI0
aI0
aI0
aI0
aI0
aI1
aI0
aa(lp55
I0
aI0
aI1
aI0
aI0
aI0
aI0
aI0
aI0
aa(lp56
I0
aI0
aI0
aI0
aI0
aI0
aI0
aI0
aI1
aa(lp57
I0
aI0
aI0
aI0
aI0
aI1
aI0
aI0
aI0
aa(lp58
I0
aI0
aI0
aI0
aI1
aI0
aI0
aI0
aI0
aa(lp59
I0
aI0
aI0
aI0
aI0
aI0
aI0
aI1
aI0
aa(lp60
I1
aI0
aI0
aI0
aI0
aI0
aI0
aI0
aI0
aa(lp61
I0
aI1
aI0
aI0
aI0
aI0
aI0
aI0
aI0
aa(lp62
I0
aI0
aI1
aI0
aI0
aI0
aI0
aI0
aI0
aa(lp63
I0
aI0
aI0
aI0
aI0
aI0
aI0
aI0
aI1
aa(lp64
I0
aI0
aI0
aI1
aI0
aI0
aI0
aI0
aI0
aa(lp65
I0
aI0
aI0
aI0
aI0
aI0
aI1
aI0
aI0
aa(lp66
F0.13697000082206498
aI0
aF0.041209994245545084
aF0.13697000082206498
aF0.13697000082206498
aF0.13697000082206498
aF0.13697000082206498
aF0.13697000082206498
aF0.13697000082206498
aa(lp67
F0.19136060735605726
aI0
aI0
aF0.19136060735605726
aF0.04319696321971368
aF0.19136060735605726
aF0.19136060735605726
aF0.19136060735605726
aI0
aa(lp68
F0.045317311730504545
aI0
aI0
aF0.3182275627564985
aI0
aF0.3182275627564985
aF0.3182275627564985
aI0
aI0
aa(lp69
I0
aI0
aI0
aI0
aI0
aF0.04758129098202024
aF0.9524187090179798
aI0
aI0
aa(lp70
I0
aI1
aI0
aI0
aI0
aI0
aI0
aI0
aI0
aa(lp71
I0
aI0
aI0
aI0
aI0
aI0
aI0
aI0
aI1
aa(lp72
I0
aI0
aI0
aI0
aI0
aI0
aI0
aI1
aI0
aa(lp73
I0
aI0
aI0
aI1
aI0
aI0
aI0
aI0
aI0
aa(lp74
I0
aI0
aI0
aI0
aI0
aI0
aI1
aI0
aI0
aa(lp75
F0.13822889679788783
aF0.13822889679788783
aI0
aF0.13822889679788783
aF0.13822889679788783
aF0.13822889679788783
aF0.13822889679788783
aF0.032397722414785265
aF0.13822889679788783
aa(lp76
F0.19395769176926606
aF0.19395769176926606
aI0
aF0.19395769176926606
aI0
aF0.19395769176926606
aF0.030211541153669697
aI0
aF0.19395769176926606
aa(lp77
F0.02379064549101012
aF0.3254031181696633
aI0
aI0
aI0
aF0.3254031181696633
aI0
aI0
aF0.3254031181696633
aa(lp78
I0
aI0
aI1
aI0
aI0
aI0
aI0
aI0
aI0
aa(lp79
I0
aI0
aI0
aI0
aI1
aI0
aI0
aI0
aI0
aa(lp80
I0
aI0
aI0
aI1
aI0
aI0
aI0
aI0
aI0
aa(lp81
I0
aI0
aI0
aI0
aI0
aI1
aI0
aI0
aI0
aa(lp82
F0.13822889679788783
aF0.13822889679788783
aF0.13822889679788783
aF0.13822889679788783
aF0.13822889679788783
aI0
aF0.032397722414785265
aF0.13822889679788783
aF0.13822889679788783
aa(lp83
F0.19395769176926606
aI0
aF0.030211541153669697
aF0.19395769176926606
aF0.19395769176926606
aI0
aI0
aF0.19395769176926606
aF0.19395769176926606
aa(lp84
F0.3254031181696633
aI0
aI0
aI0
aF0.3254031181696633
aI0
aI0
aF0.02379064549101012
aF0.3254031181696633
aa(lp85
I0
aI0
aI0
aI0
aI0
aI1
aI0
aI0
aI0
aa(lp86
I0
aI1
aI0
aI0
aI0
aI0
aI0
aI0
aI0
aa(lp87
I0
aI0
aI0
aI1
aI0
aI0
aI0
aI0
aI0
aa(lp88
I0
aI0
aI0
aI0
aI1
aI0
aI0
aI0
aI0
aa(lp89
F0.13697000082206498
aF0.041209994245545084
aF0.13697000082206498
aF0.13697000082206498
aF0.13697000082206498
aF0.13697000082206498
aF0.13697000082206498
aI0
aF0.13697000082206498
aa(lp90
F0.19136060735605726
aI0
aF0.19136060735605726
aF0.04319696321971368
aI0
aF0.19136060735605726
aF0.19136060735605726
aI0
aF0.19136060735605726
aa(lp91
F0.3182275627564985
aI0
aF0.3182275627564985
aI0
aI0
aF0.045317311730504545
aF0.3182275627564985
aI0
aI0
aa(lp92
F0.9524187090179798
aI0
aI0
aI0
aI0
aI0
aF0.04758129098202024
aI0
aI0
aa(lp93
I0
aI0
aI0
aI0
aI0
aI0
aI0
aI1
aI0
aa(lp94
I0
aI0
aI0
aI0
aI1
aI0
aI0
aI0
aI0
aa(lp95
I0
aI0
aI0
aI0
aI0
aI0
aI0
aI0
aI1
aa(lp96
I0
aI0
aI1
aI0
aI0
aI0
aI0
aI0
aI0
aa(lp97
I1
aI0
aI0
aI0
aI0
aI0
aI0
aI0
aI0
aa(lp98
F0.13697000082206498
aI0
aF0.13697000082206498
aF0.13697000082206498
aF0.13697000082206498
aF0.13697000082206498
aF0.13697000082206498
aF0.041209994245545084
aF0.13697000082206498
aa(lp99
F0.19136060735605726
aI0
aF0.19136060735605726
aF0.19136060735605726
aF0.19136060735605726
aF0.04319696321971368
aI0
aI0
aF0.19136060735605726
aa(lp100
F0.3182275627564985
aI0
aF0.3182275627564985
aF0.3182275627564985
aF0.045317311730504545
aI0
aI0
aI0
aI0
aa(lp101
F0.9524187090179798
aI0
aF0.04758129098202024
aI0
aI0
aI0
aI0
aI0
aI0
aa(lp102
I0
aI1
aI0
aI0
aI0
aI0
aI0
aI0
aI0
aa(lp103
I0
aI0
aI0
aI0
aI0
aI0
aI1
aI0
aI0
aa(lp104
I0
aI0
aI0
aI0
aI0
aI0
aI0
aI0
aI1
aa(lp105
I0
aI0
aI0
aI1
aI0
aI0
aI0
aI0
aI0
aa(lp106
I1
aI0
aI0
aI0
aI0
aI0
aI0
aI0
aI0
aa(lp107
F0.13697000082206498
aF0.13697000082206498
aF0.13697000082206498
aI0
aF0.13697000082206498
aF0.13697000082206498
aF0.041209994245545084
aF0.13697000082206498
aF0.13697000082206498
aa(lp108
F0.19136060735605726
aI0
aF0.19136060735605726
aI0
aF0.04319696321971368
aF0.19136060735605726
aI0
aF0.19136060735605726
aF0.19136060735605726
aa(lp109
I0
aI0
aF0.3182275627564985
aI0
aI0
aF0.3182275627564985
aI0
aF0.3182275627564985
aF0.045317311730504545
aa(lp110
I0
aI0
aF0.9524187090179798
aI0
aI0
aF0.04758129098202024
aI0
aI0
aI0
aa(lp111
I0
aI0
aI0
aI1
aI0
aI0
aI0
aI0
aI0
aa(lp112
I0
aI1
aI0
aI0
aI0
aI0
aI0
aI0
aI0
aa(lp113
I1
aI0
aI0
aI0
aI0
aI0
aI0
aI0
aI0
aa(lp114
I0
aI0
aI0
aI0
aI0
aI0
aI0
aI1
aI0
aa(lp115
I0
aI0
aI1
aI0
aI0
aI0
aI0
aI0
aI0
aa(lp116
F0.13697000082206498
aI0
aF0.13697000082206498
aF0.13697000082206498
aF0.13697000082206498
aF0.13697000082206498
aF0.041209994245545084
aF0.13697000082206498
aF0.13697000082206498
aa(lp117
F0.19136060735605726
aI0
aF0.19136060735605726
aF0.19136060735605726
aF0.19136060735605726
aF0.19136060735605726
aI0
aF0.04319696321971368
aI0
aa(lp118
F0.3182275627564985
aI0
aF0.045317311730504545
aI0
aF0.3182275627564985
aF0.3182275627564985
aI0
aI0
aI0
aa(lp119
F0.04758129098202024
aI0
aI0
aI0
aI0
aF0.9524187090179798
aI0
aI0
aI0
aa(lp120
I0
aI1
aI0
aI0
aI0
aI0
aI0
aI0
aI0
aa(lp121
I0
aI0
aI0
aI0
aI0
aI0
aI0
aI0
aI1
aa(lp122
I0
aI0
aI0
aI1
aI0
aI0
aI0
aI0
aI0
aa(lp123
I0
aI0
aI0
aI0
aI1
aI0
aI0
aI0
aI0
aa(lp124
I0
aI0
aI0
aI0
aI0
aI1
aI0
aI0
aI0
aa(lp125
F0.13697000082206498
aF0.041209994245545084
aF0.13697000082206498
aI0
aF0.13697000082206498
aF0.13697000082206498
aF0.13697000082206498
aF0.13697000082206498
aF0.13697000082206498
aa(lp126
F0.19136060735605726
aI0
aI0
aI0
aF0.19136060735605726
aF0.19136060735605726
aF0.04319696321971368
aF0.19136060735605726
aF0.19136060735605726
aa(lp127
F0.3182275627564985
aI0
aI0
aI0
aF0.3182275627564985
aF0.045317311730504545
aI0
aF0.3182275627564985
aI0
aa(lp128
I0
aI0
aI0
aI0
aF0.9524187090179798
aI0
aI0
aF0.04758129098202024
aI0
aa(lp129
I0
aI0
aI0
aI1
aI0
aI0
aI0
aI0
aI0
aa(lp130
I0
aI0
aI1
aI0
aI0
aI0
aI0
aI0
aI0
aa(lp131
I0
aI0
aI0
aI0
aI0
aI0
aI0
aI0
aI1
aa(lp132
I1
aI0
aI0
aI0
aI0
aI0
aI0
aI0
aI0
aa(lp133
I0
aI0
aI0
aI0
aI1
aI0
aI0
aI0
aI0
aa(lp134
I0
aI1
aI0
aI0
aI0
aI0
aI0
aI0
aI0
aa(lp135
I0
aI0
aI1
aI0
aI0
aI0
aI0
aI0
aI0
aa(lp136
I0
aI0
aI0
aI0
aI1
aI0
aI0
aI0
aI0
aa(lp137
I0
aI0
aI0
aI0
aI0
aI0
aI1
aI0
aI0
aa(lp138
F0.12042111175049498
aF0.12042111175049498
aF0.12042111175049498
aF0.12042111175049498
aF0.12042111175049498
aF0.12042111175049498
aF0.12042111175049498
aF0.036631105996040074
aF0.12042111175049498
aa(lp139
F0.16049567192099326
aI0
aF0.16049567192099326
aF0.16049567192099326
aF0.16049567192099326
aF0.0370259684740403
aF0.16049567192099326
aI0
aF0.16049567192099326
aa(lp140
F0.03625384938440364
aI0
aI0
aF0.2409365376538991
aF0.2409365376538991
aI0
aF0.2409365376538991
aI0
aF0.2409365376538991
aa(lp141
I0
aI0
aI0
aF0.48413956967265986
aI0
aI0
aF0.48413956967265986
aI0
aF0.03172086065468016
aa(lp142
F0.13822889679788783
aF0.13822889679788783
aF0.13822889679788783
aF0.13822889679788783
aF0.13822889679788783
aI0
aF0.13822889679788783
aF0.032397722414785265
aF0.13822889679788783
aa(lp143
F0.19395769176926606
aF0.030211541153669697
aF0.19395769176926606
aF0.19395769176926606
aF0.19395769176926606
aI0
aF0.19395769176926606
aI0
aI0
aa(lp144
F0.3254031181696633
aI0
aF0.3254031181696633
aF0.3254031181696633
aI0
aI0
aF0.02379064549101012
aI0
aI0
aa(lp145
I0
aI0
aI0
aI0
aI0
aI1
aI0
aI0
aI0
aa(lp146
I0
aI0
aI0
aI0
aI0
aI0
aI0
aI0
aI1
aa(lp147
I0
aI0
aI0
aI0
aI1
aI0
aI0
aI0
aI0
aa(lp148
I1
aI0
aI0
aI0
aI0
aI0
aI0
aI0
aI0
aa(lp149
F0.13822889679788783
aF0.13822889679788783
aF0.13822889679788783
aF0.032397722414785265
aF0.13822889679788783
aF0.13822889679788783
aF0.13822889679788783
aF0.13822889679788783
aI0
aa(lp150
F0.19395769176926606
aF0.19395769176926606
aF0.19395769176926606
aI0
aF0.19395769176926606
aF0.19395769176926606
aI0
aF0.030211541153669697
aI0
aa(lp151
F0.3254031181696633
aF0.3254031181696633
aF0.02379064549101012
aI0
aI0
aF0.3254031181696633
aI0
aI0
aI0
aa(lp152
I0
aI0
aI0
aI0
aI0
aI0
aI0
aI0
aI1
aa(lp153
I0
aI0
aI0
aI0
aI0
aI0
aI1
aI0
aI0
aa(lp154
I0
aI0
aI0
aI0
aI1
aI0
aI0
aI0
aI0
aa(lp155
I1
aI0
aI0
aI0
aI0
aI0
aI0
aI0
aI0
aa.