(lp0
(lp1
F0.13697000082206498
aF0.13697000082206498
aF0.13697000082206498
aF0.13697000082206498
aI0
aF0.13697000082206498
aF0.041209994245545084
aF0.13697000082206498
aF0.13697000082206498
aa(lp2
F0.19136060735605726
aF0.19136060735605726
aI0
aF0.19136060735605726
aI0
aF0.19136060735605726
aI0
aF0.19136060735605726
aF0.04319696321971368
aa(lp3
I0
aF0.3182275627564985
aI0
aF0.045317311730504545
aI0
aF0.3182275627564985
aI0
aF0.3182275627564985
aI0
aa(lp4
I0
aF0.9524187090179798
aI0
aI0
aI0
aF0.04758129098202024
aI0
aI0
aI0
aa(lp5
I0
aI0
aI0
aI0
aI1
aI0
aI0
aI0
aI0
aa(lp6
I0
aI0
aI1
aI0
aI0
aI0
aI0
aI0
aI0
aa(lp7
I1
aI0
aI0
aI0
aI0
aI0
aI0
aI0
aI0
aa(lp8
I0
aI0
aI0
aI0
aI0
aI0
aI0
aI1
aI0
aa(lp9
I0
aI1
aI0
aI0
aI0
aI0
aI0
aI0
aI0
aa(lp10
F0.13697000082206498
aF0.13697000082206498
aF0.13697000082206498
aF0.13697000082206498
aI0
aF0.041209994245545084
aF0.13697000082206498
aF0.13697000082206498
aF0.13697000082206498
aa(lp11
I0
aF0.04319696321971368
aF0.19136060735605726
aF0.19136060735605726
aI0
aI0
aF0.19136060735605726
aF0.19136060735605726
aF0.19136060735605726
aa(lp12
I0
aI0
aF0.3182275627564985
aF0.3182275627564985
aI0
aI0
aF0.3182275627564985
aI0
aF0.045317311730504545
aa(lp13
I0
aI0
aI0
aF0.9524187090179798
aI0
aI0
aF0.04758129098202024
aI0
aI0
aa(lp14
F0.11953514805156436
aF0.11953514805156436
aF0.11953514805156436
aF0.11953514805156436
aF0.04371881558748517
aF0.11953514805156436
aF0.11953514805156436
aF0.11953514805156436
aF0.11953514805156436
aa(lp15
F0.04709713628062295
aF0.15881714395322952
aF0.15881714395322952
aF0.15881714395322952
aI0
aI0
aF0.15881714395322952
aF0.15881714395322952
aF0.15881714395322952
aa(lp16
I0
aI0
aF0.23704091103408592
aF0.23704091103408592
aI0
aI0
aF0.23704091103408592
aF0.051836355863656425
aF0.23704091103408592
aa(lp17
I0
aI0
aF0.06042308230733939
aF0.46978845884633025
aI0
aI0
aF0.46978845884633025
aI0
aI0
aa(lp18
I0
aI0
aI0
aF0.09516258196404048
aI0
aI0
aI0
aI0
aI0
aa(lp19
I0
aI0
aI0
aI0
aI0
aI0
aI0
aI0
aI1
aa(lp20
I0
aI1
aI0
aI0
aI0
aI0
aI0
aI0
aI0
aa(lp21
I0
aI0
aI0
aI0
aI1
aI0
aI0
aI0
aI0
aa(lp22
I1
aI0
aI0
aI0
aI0
aI0
aI0
aI0
aI0
aa(lp23
F0.12042111175049498
aF0.12042111175049498
aF0.036631105996040074
aF0.12042111175049498
aF0.12042111175049498
aF0.12042111175049498
aF0.12042111175049498
aF0.12042111175049498
aF0.12042111175049498
aa(lp24
F0.16049567192099326
aF0.16049567192099326
aI0
aF0.0370259684740403
aF0.16049567192099326
aF0.16049567192099326
aF0.16049567192099326
aF0.16049567192099326
aI0
aa(lp25
F0.2409365376538991
aI0
aI0
aI0
aF0.2409365376538991
aF0.03625384938440364
aF0.2409365376538991
aF0.2409365376538991
aI0
aa(lp26
F0.48413956967265986
aI0
aI0
aI0
aI0
aI0
aF0.03172086065468016
aF0.48413956967265986
aI0
aa(lp27
I0
aI0
aI0
aI0
aI1
aI0
aI0
aI0
aI0
aa(lp28
I0
aI0
aI0
aI1
aI0
aI0
aI0
aI0
aI0
aa(lp29
I0
aI0
aI0
aI0
aI0
aI1
aI0
aI0
aI0
aa(lp30
F0.028797975479809123
aF0.12140025306502385
aF0.12140025306502385
aF0.12140025306502385
aF0.12140025306502385
aF0.12140025306502385
aF0.12140025306502385
aF0.12140025306502385
aF0.12140025306502385
aa(lp31
I0
aF0.1623507322161424
aF0.1623507322161424
aF0.1623507322161424
aI0
aF0.1623507322161424
aF0.1623507322161424
aF0.025895606703145453
aF0.1623507322161424
aa(lp32
I0
aF0.24524187090179797
aF0.019032516392808098
aI0
aI0
aF0.24524187090179797
aF0.24524187090179797
aI0
aF0.24524187090179797
aa(lp33
I0
aI0
aI0
aI0
aI0
aI0
aI1
aI0
aI0
aa(lp34
I0
aI1
aI0
aI0
aI0
aI0
aI0
aI0
aI0
aa(lp35
I0
aI0
aI0
aI0
aI1
aI0
aI0
aI0
aI0
aa(lp36
I0
aI0
aI1
aI0
aI0
aI0
aI0
aI0
aI0
aa(lp37
F0.12042111175049498
aF0.12042111175049498
aF0.12042111175049498
aF0.12042111175049498
aF0.12042111175049498
aF0.12042111175049498
aF0.12042111175049498
aF0.12042111175049498
aF0.036631105996040074
aa(lp38
F0.0370259684740403
aF0.16049567192099326
aF0.16049567192099326
aF0.16049567192099326
aF0.16049567192099326
aF0.16049567192099326
aI0
aF0.16049567192099326
aI0
aa(lp39
I0
aI0
aF0.2409365376538991
aF0.2409365376538991
aF0.2409365376538991
aF0.03625384938440364
aI0
aF0.2409365376538991
aI0
aa(lp40
I0
aI0
aF0.48413956967265986
aF0.03172086065468016
aI0
aI0
aI0
aF0.48413956967265986
aI0
aa(lp41
F0.13822889679788783
aF0.13822889679788783
aF0.13822889679788783
aF0.13822889679788783
aF0.13822889679788783
aI0
aF0.13822889679788783
aF0.032397722414785265
aF0.13822889679788783
aa(lp42
F0.19395769176926606
aF0.19395769176926606
aI0
aF0.030211541153669697
aF0.19395769176926606
aI0
aF0.19395769176926606
aI0
aF0.19395769176926606
aa(lp43
F0.02379064549101012
aF0.3254031181696633
aI0
aI0
aF0.3254031181696633
aI0
aI0
aI0
aF0.3254031181696633
aa(lp44
I0
aI0
aI0
aI0
aI0
aI1
aI0
aI0
aI0
aa(lp45
I0
aI0
aI1
aI0
aI0
aI0
aI0
aI0
aI0
aa(lp46
I0
aI0
aI0
aI0
aI0
aI0
aI1
aI0
aI0
aa(lp47
I0
aI0
aI0
aI0
aI1
aI0
aI0
aI0
aI0
aa(lp48
I0
aI0
aI0
aI0
aI0
aI0
aI0
aI1
aI0
aa(lp49
I0
aI0
aI0
aI1
aI0
aI0
aI0
aI0
aI0
aa(lp50
I0
aI0
aI0
aI0
aI1
aI0
aI0
aI0
aI0
aa(lp51
I0
aI0
aI0
aI0
aI0
aI1
aI0
aI0
aI0
aa(lp52
F0.12042111175049498
aF0.036631105996040074
aF0.12042111175049498
aF0.12042111175049498
aF0.12042111175049498
aF0.12042111175049498
aF0.12042111175049498
aF0.12042111175049498
aF0.12042111175049498
aa(lp53
F0.16049567192099326
aI0
aF0.16049567192099326
aF0.16049567192099326
aF0.16049567192099326
aF0.16049567192099326
aF0.16049567192099326
aI0
aF0.0370259684740403
aa(lp54
F0.2409365376538991
aI0
aF0.2409365376538991
aI0
aF0.2409365376538991
aF0.2409365376538991
aF0.03625384938440364
aI0
aI0
aa(lp55
F0.48413956967265986
aI0
aF0.03172086065468016
aI0
aI0
aF0.48413956967265986
aI0
aI0
aI0
aa(lp56
I0
aI0
aI1
aI0
aI0
aI0
aI0
aI0
aI0
aa(lp57
I0
aI0
aI0
aI0
aI0
aI0
aI0
aI0
aI1
aa(lp58
I0
aI0
aI0
aI0
aI0
aI1
aI0
aI0
aI0
aa(lp59
F0.12140025306502385
aF0.028797975479809123
aF0.12140025306502385
aF0.12140025306502385
aF0.12140025306502385
aF0.12140025306502385
aF0.12140025306502385
aF0.12140025306502385
aF0.12140025306502385
aa(lp60
F0.1623507322161424
aI0
aI0
aF0.1623507322161424
aF0.1623507322161424
aF0.1623507322161424
aF0.025895606703145453
aF0.1623507322161424
aF0.1623507322161424
aa(lp61
F0.019032516392808098
aI0
aI0
aF0.24524187090179797
aF0.24524187090179797
aF0.24524187090179797
aI0
aF0.24524187090179797
aI0
aa(lp62
F0.041209994245545084
aI0
aF0.13697000082206498
aF0.13697000082206498
aF0.13697000082206498
aF0.13697000082206498
aF0.13697000082206498
aF0.13697000082206498
aF0.13697000082206498
aa(lp63
I0
aI0
aF0.04319696321971368
aF0.19136060735605726
aF0.19136060735605726
aF0.19136060735605726
aF0.19136060735605726
aF0.19136060735605726
aI0
aa(lp64
I0
aI0
aI0
aF0.3182275627564985
aF0.3182275627564985
aI0
aF0.045317311730504545
aF0.3182275627564985
aI0
aa(lp65
I0
aI0
aI0
aF0.9524187090179798
aI0
aI0
aI0
aF0.04758129098202024
aI0
aa(lp66
I0
aI1
aI0
aI0
aI0
aI0
aI0
aI0
aI0
aa(lp67
I0
aI0
aI0
aI0
aI0
aI0
aI0
aI0
aI1
aa(lp68
I0
aI0
aI0
aI0
aI0
aI1
aI0
aI0
aI0
aa(lp69
I0
aI0
aI0
aI0
aI1
aI0
aI0
aI0
aI0
aa(lp70
I0
aI0
aI0
aI1
aI0
aI0
aI0
aI0
aI0
aa(lp71
I0
aF0.13697000082206498
aF0.13697000082206498
aF0.13697000082206498
aF0.13697000082206498
aF0.13697000082206498
aF0.13697000082206498
aF0.041209994245545084
aF0.13697000082206498
aa(lp72
I0
aF0.19136060735605726
aF0.19136060735605726
aF0.19136060735605726
aF0.04319696321971368
aF0.19136060735605726
aI0
aI0
aF0.19136060735605726
aa(lp73
I0
aF0.3182275627564985
aF0.045317311730504545
aF0.3182275627564985
aI0
aF0.3182275627564985
aI0
aI0
aI0
aa(lp74
I0
aI0
aI0
aF0.9524187090179798
aI0
aF0.04758129098202024
aI0
aI0
aI0
aa(lp75
I1
aI0
aI0
aI0
aI0
aI0
aI0
aI0
aI0
aa(lp76
I0
aI0
aI0
aI0
aI0
aI0
aI1
aI0
aI0
aa(lp77
I0
aI0
aI0
aI0
aI0
aI0
aI0
aI0
aI1
aa(lp78
I0
aI1
aI0
aI0
aI0
aI0
aI0
aI0
aI0
aa(lp79
I0
aI0
aI0
aI1
aI0
aI0
aI0
aI0
aI0
aa(lp80
F0.13697000082206498
aI0
aF0.13697000082206498
aF0.13697000082206498
aF0.13697000082206498
aF0.13697000082206498
aF0.13697000082206498
aF0.041209994245545084
aF0.13697000082206498
aa(lp81
I0
aI0
aF0.19136060735605726
aF0.04319696321971368
aF0.19136060735605726
aF0.19136060735605726
aF0.19136060735605726
aI0
aF0.19136060735605726
aa(lp82
I0
aI0
aF0.3182275627564985
aI0
aF0.045317311730504545
aF0.3182275627564985
aI0
aI0
aF0.3182275627564985
aa(lp83
I0
aI0
aF0.04758129098202024
aI0
aI0
aF0.9524187090179798
aI0
aI0
aI0
aa(lp84
F0.11953514805156436
aF0.04371881558748517
aF0.11953514805156436
aF0.11953514805156436
aF0.11953514805156436
aF0.11953514805156436
aF0.11953514805156436
aF0.11953514805156436
aF0.11953514805156436
aa(lp85
F0.04709713628062295
aI0
aF0.15881714395322952
aF0.15881714395322952
aF0.15881714395322952
aF0.15881714395322952
aF0.15881714395322952
aI0
aF0.15881714395322952
aa(lp86
I0
aI0
aF0.23704091103408592
aI0
aF0.23704091103408592
aF0.23704091103408592
aF0.051836355863656425
aI0
aF0.23704091103408592
aa(lp87
I0
aI0
aF0.46978845884633025
aI0
aI0
aF0.46978845884633025
aI0
aI0
aF0.06042308230733939
aa(lp88
I0
aI0
aI0
aI0
aI0
aF0.09516258196404048
aI0
aI0
aI0
aa(lp89
F0.13697000082206498
aF0.13697000082206498
aF0.041209994245545084
aF0.13697000082206498
aF0.13697000082206498
aI0
aF0.13697000082206498
aF0.13697000082206498
aF0.13697000082206498
aa(lp90
F0.19136060735605726
aF0.19136060735605726
aI0
aI0
aF0.04319696321971368
aI0
aF0.19136060735605726
aF0.19136060735605726
aF0.19136060735605726
aa(lp91
F0.3182275627564985
aI0
aI0
aI0
aI0
aI0
aF0.3182275627564985
aF0.3182275627564985
aF0.045317311730504545
aa(lp92
F0.9524187090179798
aI0
aI0
aI0
aI0
aI0
aI0
aF0.04758129098202024
aI0
aa(lp93
I0
aI0
aI0
aI0
aI0
aI1
aI0
aI0
aI0
aa(lp94
I0
aI0
aI0
aI1
aI0
aI0
aI0
aI0
aI0
aa(lp95
I0
aI1
aI0
aI0
aI0
aI0
aI0
aI0
aI0
aa(lp96
I0
aI0
aI0
aI0
aI0
aI0
aI1
aI0
aI0
aa(lp97
I1
aI0
aI0
aI0
aI0
aI0
aI0
aI0
aI0
aa(lp98
I0
aF0.1396201920192497
aF0.1396201920192497
aF0.1396201920192497
aF0.1396201920192497
aF0.1396201920192497
aF0.1396201920192497
aF0.022658655865252272
aF0.1396201920192497
aa(lp99
I0
aI0
aF0.19682791393453197
aF0.19682791393453197
aF0.19682791393453197
aF0.01586043032734008
aF0.19682791393453197
aI0
aF0.19682791393453197
aa(lp100
I1
aI0
aI0
aI0
aI0
aI0
aI0
aI0
aI0
aa(lp101
I0
aI1
aI0
aI0
aI0
aI0
aI0
aI0
aI0
aa(lp102
I0
aI0
aI1
aI0
aI0
aI0
aI0
aI0
aI0
aa(lp103
F0.13822889679788783
aF0.032397722414785265
aF0.13822889679788783
aF0.13822889679788783
aF0.13822889679788783
aF0.13822889679788783
aI0
aF0.13822889679788783
aF0.13822889679788783
aa(lp104
F0.19395769176926606
aI0
aF0.19395769176926606
aF0.19395769176926606
aF0.19395769176926606
aF0.030211541153669697
aI0
aF0.19395769176926606
aI0
aa(lp105
F0.3254031181696633
aI0
aF0.3254031181696633
aI0
aF0.02379064549101012
aI0
aI0
aF0.3254031181696633
aI0
aa(lp106
I0
aI0
aI0
aI0
aI0
aI0
aI1
aI0
aI0
aa(lp107
I0
aI0
aI0
aI0
aI0
aI0
aI0
aI0
aI1
aa(lp108
I0
aI0
aI0
aI1
aI0
aI0
aI0
aI0
aI0
aa(lp109
I0
aI0
aI0
aI0
aI0
aI0
aI0
aI1
aI0
aa(lp110
I0
aI0
aI0
aI0
aI0
aI1
aI0
aI0
aI0
aa(lp111
I1
aI0
aI0
aI0
aI0
aI0
aI0
aI0
aI0
aa(lp112
I0
aI0
aI0
aI1
aI0
aI0
aI0
aI0
aI0
aa(lp113
I0
aI0
aI0
aI0
aI1
aI0
aI0
aI0
aI0
aa(lp114
F0.12042111175049498
aF0.12042111175049498
aF0.036631105996040074
aF0.12042111175049498
aF0.12042111175049498
aF0.12042111175049498
aF0.12042111175049498
aF0.12042111175049498
aF0.12042111175049498
aa(lp115
F0.16049567192099326
aF0.16049567192099326
aI0
aF0.16049567192099326
aF0.16049567192099326
aI0
aF0.16049567192099326
aF0.16049567192099326
aF0.0370259684740403
aa(lp116
I0
aF0.03625384938440364
aI0
aF0.2409365376538991
aF0.2409365376538991
aI0
aF0.2409365376538991
aF0.2409365376538991
aI0
aa(lp117
I0
aI0
aI0
aI0
aF0.48413956967265986
aI0
aF0.03172086065468016
aF0.48413956967265986
aI0
aa(lp118
F0.1396201920192497
aI0
aF0.1396201920192497
aF0.1396201920192497
aF0.1396201920192497
aF0.022658655865252272
aF0.1396201920192497
aF0.1396201920192497
aF0.1396201920192497
aa(lp119
I0
aI0
aF0.19682791393453197
aF0.19682791393453197
aF0.19682791393453197
aI0
aF0.01586043032734008
aF0.19682791393453197
aF0.19682791393453197
aa(lp120
I0
aI1
aI0
aI0
aI0
aI0
aI0
aI0
aI0
aa(lp121
I1
aI0
aI0
aI0
aI0
aI0
aI0
aI0
aI0
aa(lp122
I0
aI0
aI1
aI0
aI0
aI0
aI0
aI0
aI0
aa(lp123
I0
aI0
aI1
aI0
aI0
aI0
aI0
aI0
aI0
aa(lp124
I0
aI1
aI0
aI0
aI0
aI0
aI0
aI0
aI0
aa(lp125
I0
aI0
aI0
aI0
aI1
aI0
aI0
aI0
aI0
aa(lp126
I0
aI0
aI0
aI0
aI0
aI0
aI0
aI1
aI0
aa(lp127
F0.12042111175049498
aF0.12042111175049498
aF0.12042111175049498
aF0.12042111175049498
aF0.12042111175049498
aF0.12042111175049498
aF0.036631105996040074
aF0.12042111175049498
aF0.12042111175049498
aa(lp128
F0.16049567192099326
aF0.16049567192099326
aI0
aF0.16049567192099326
aF0.16049567192099326
aF0.16049567192099326
aI0
aF0.16049567192099326
aF0.0370259684740403
aa(lp129
F0.03625384938440364
aI0
aI0
aF0.2409365376538991
aF0.2409365376538991
aF0.2409365376538991
aI0
aF0.2409365376538991
aI0
aa(lp130
I0
aI0
aI0
aF0.48413956967265986
aI0
aF0.03172086065468016
aI0
aF0.48413956967265986
aI0
aa(lp131
F0.1396201920192497
aF0.1396201920192497
aF0.1396201920192497
aF0.1396201920192497
aF0.022658655865252272
aF0.1396201920192497
aI0
aF0.1396201920192497
aF0.1396201920192497
aa(lp132
F0.19682791393453197
aF0.19682791393453197
aF0.19682791393453197
aF0.01586043032734008
aI0
aF0.19682791393453197
aI0
aI0
aF0.19682791393453197
aa(lp133
I0
aI0
aI0
aI0
aI0
aI0
aI1
aI0
aI0
aa(lp134
I0
aI0
aI0
aI0
aI0
aI0
aI0
aI1
aI0
aa(lp135
I0
aI0
aI0
aI0
aI0
aI0
aI0
aI0
aI1
aa(lp136
F0.13697000082206498
aF0.13697000082206498
aI0
aF0.13697000082206498
aF0.13697000082206498
aF0.13697000082206498
aF0.041209994245545084
aF0.13697000082206498
aF0.13697000082206498
aa(lp137
F0.04319696321971368
aF0.19136060735605726
aI0
aF0.19136060735605726
aF0.19136060735605726
aI0
aI0
aF0.19136060735605726
aF0.19136060735605726
aa(lp138
I0
aF0.3182275627564985
aI0
aF0.3182275627564985
aI0
aI0
aI0
aF0.3182275627564985
aF0.045317311730504545
aa(lp139
I0
aF0.04758129098202024
aI0
aF0.9524187090179798
aI0
aI0
aI0
aI0
aI0
aa(lp140
I0
aI0
aI1
aI0
aI0
aI0
aI0
aI0
aI0
aa(lp141
I0
aI0
aI0
aI0
aI0
aI1
aI0
aI0
aI0
aa(lp142
I0
aI0
aI0
aI0
aI1
aI0
aI0
aI0
aI0
aa(lp143
I0
aI0
aI0
aI0
aI0
aI0
aI0
aI1
aI0
aa(lp144
I0
aI0
aI0
aI1
aI0
aI0
aI0
aI0
aI0
aa(lp145
F0.13697000082206498
aF0.13697000082206498
aF0.13697000082206498
aF0.041209994245545084
aI0
aF0.13697000082206498
aF0.13697000082206498
aF0.13697000082206498
aF0.13697000082206498
aa(lp146
F0.04319696321971368
aF0.19136060735605726
aF0.19136060735605726
aI0
aI0
aI0
aF0.19136060735605726
aF0.19136060735605726
aF0.19136060735605726
aa(lp147
I0
aF0.3182275627564985
aI0
aI0
aI0
aI0
aF0.3182275627564985
aF0.3182275627564985
aF0.045317311730504545
aa(lp148
I0
aF0.04758129098202024
aI0
aI0
aI0
aI0
aF0.9524187090179798
aI0
aI0
aa(lp149
I0
aI0
aI0
aI0
aI1
aI0
aI0
aI0
aI0
aa(lp150
I0
aI0
aI0
aI0
aI0
aI1
aI0
aI0
aI0
aa(lp151
I0
aI0
aI1
aI0
aI0
aI0
aI0
aI0
aI0
aa(lp152
I0
aI0
aI0
aI0
aI0
aI0
aI0
aI1
aI0
aa(lp153
I0
aI0
aI0
aI0
aI0
aI0
aI1
aI0
aI0
aa(lp154
F0.13697000082206498
aF0.13697000082206498
aF0.13697000082206498
aF0.041209994245545084
aF0.13697000082206498
aI0
aF0.13697000082206498
aF0.13697000082206498
aF0.13697000082206498
aa(lp155
F0.19136060735605726
aF0.19136060735605726
aF0.19136060735605726
aI0
aF0.19136060735605726
aI0
aI0
aF0.19136060735605726
aF0.04319696321971368
aa(lp156
F0.3182275627564985
aI0
aF0.3182275627564985
aI0
aF0.3182275627564985
aI0
aI0
aF0.045317311730504545
aI0
aa(lp157
F0.9524187090179798
aI0
aF0.04758129098202024
aI0
aI0
aI0
aI0
aI0
aI0
aa(lp158
F0.11953514805156436
aF0.11953514805156436
aF0.11953514805156436
aF0.11953514805156436
aF0.11953514805156436
aF0.04371881558748517
aF0.11953514805156436
aF0.11953514805156436
aF0.11953514805156436
aa(lp159
F0.15881714395322952
aF0.15881714395322952
aF0.15881714395322952
aI0
aF0.15881714395322952
aI0
aF0.04709713628062295
aF0.15881714395322952
aF0.15881714395322952
aa(lp160
F0.23704091103408592
aF0.051836355863656425
aF0.23704091103408592
aI0
aF0.23704091103408592
aI0
aI0
aF0.23704091103408592
aI0
aa(lp161
F0.46978845884633025
aI0
aF0.46978845884633025
aI0
aF0.06042308230733939
aI0
aI0
aI0
aI0
aa(lp162
F0.09516258196404048
aI0
aI0
aI0
aI0
aI0
aI0
aI0
aI0
aa(lp163
F0.13697000082206498
aF0.13697000082206498
aF0.13697000082206498
aF0.13697000082206498
aF0.041209994245545084
aF0.13697000082206498
aF0.13697000082206498
aF0.13697000082206498
aI0
aa(lp164
F0.04319696321971368
aF0.19136060735605726
aF0.19136060735605726
aF0.19136060735605726
aI0
aI0
aF0.19136060735605726
aF0.19136060735605726
aI0
aa(lp165
I0
aI0
aF0.3182275627564985
aF0.045317311730504545
aI0
aI0
aF0.3182275627564985
aF0.3182275627564985
aI0
aa(lp166
I0
aI0
aF0.04758129098202024
aI0
aI0
aI0
aF0.9524187090179798
aI0
aI0
aa(lp167
I0
aI0
aI0
aI0
aI0
aI0
aI0
aI0
aI1
aa(lp168
I0
aI0
aI0
aI0
aI0
aI1
aI0
aI0
aI0
aa(lp169
I0
aI1
aI0
aI0
aI0
aI0
aI0
aI0
aI0
aa(lp170
I0
aI0
aI0
aI0
aI0
aI0
aI0
aI1
aI0
aa(lp171
I0
aI0
aI0
aI0
aI0
aI0
aI1
aI0
aI0
aa(lp172
F0.13697000082206498
aF0.13697000082206498
aF0.041209994245545084
aF0.13697000082206498
aF0.13697000082206498
aF0.13697000082206498
aI0
aF0.13697000082206498
aF0.13697000082206498
aa(lp173
F0.19136060735605726
aF0.19136060735605726
aI0
aF0.04319696321971368
aF0.19136060735605726
aF0.19136060735605726
aI0
aF0.19136060735605726
aI0
aa(lp174
F0.3182275627564985
aI0
aI0
aI0
aF0.3182275627564985
aF0.3182275627564985
aI0
aF0.045317311730504545
aI0
aa(lp175
I0
aI0
aI0
aI0
aF0.04758129098202024
aF0.9524187090179798
aI0
aI0
aI0
aa(lp176
F0.11953514805156436
aF0.11953514805156436
aF0.11953514805156436
aF0.11953514805156436
aF0.11953514805156436
aF0.11953514805156436
aF0.04371881558748517
aF0.11953514805156436
aF0.11953514805156436
aa(lp177
F0.15881714395322952
aF0.15881714395322952
aI0
aF0.15881714395322952
aF0.15881714395322952
aF0.15881714395322952
aI0
aF0.15881714395322952
aF0.04709713628062295
aa(lp178
F0.23704091103408592
aF0.051836355863656425
aI0
aI0
aF0.23704091103408592
aF0.23704091103408592
aI0
aF0.23704091103408592
aI0
aa(lp179
F0.06042308230733939
aI0
aI0
aI0
aF0.46978845884633025
aF0.46978845884633025
aI0
aI0
aI0
aa(lp180
I0
aI0
aI0
aI0
aI0
aF0.09516258196404048
aI0
aI0
aI0
aa(lp181
F0.13822889679788783
aF0.13822889679788783
aF0.032397722414785265
aI0
aF0.13822889679788783
aF0.13822889679788783
aF0.13822889679788783
aF0.13822889679788783
aF0.13822889679788783
aa(lp182
I0
aF0.19395769176926606
aI0
aI0
aF0.19395769176926606
aF0.19395769176926606
aF0.19395769176926606
aF0.030211541153669697
aF0.19395769176926606
aa(lp183
I0
aF0.3254031181696633
aI0
aI0
aF0.3254031181696633
aI0
aF0.02379064549101012
aI0
aF0.3254031181696633
aa(lp184
I0
aI0
aI0
aI1
aI0
aI0
aI0
aI0
aI0
aa(lp185
I1
aI0
aI0
aI0
aI0
aI0
aI0
aI0
aI0
aa(lp186
I0
aI0
aI0
aI0
aI0
aI1
aI0
aI0
aI0
aa(lp187
I0
aI0
aI0
aI0
aI1
aI0
aI0
aI0
aI0
aa(lp188
F0.041209994245545084
aF0.13697000082206498
aF0.13697000082206498
aF0.13697000082206498
aI0
aF0.13697000082206498
aF0.13697000082206498
aF0.13697000082206498
aF0.13697000082206498
aa(lp189
I0
aF0.19136060735605726
aF0.19136060735605726
aF0.04319696321971368
aI0
aF0.19136060735605726
aI0
aF0.19136060735605726
aF0.19136060735605726
aa(lp190
I0
aI0
aF0.3182275627564985
aI0
aI0
aF0.045317311730504545
aI0
aF0.3182275627564985
aF0.3182275627564985
aa(lp191
I0
aI0
aF0.9524187090179798
aI0
aI0
aI0
aI0
aF0.04758129098202024
aI0
aa(lp192
I0
aI0
aI0
aI0
aI1
aI0
aI0
aI0
aI0
aa(lp193
I0
aI0
aI0
aI0
aI0
aI0
aI1
aI0
aI0
aa(lp194
I0
aI1
aI0
aI0
aI0
aI0
aI0
aI0
aI0
aa(lp195
I0
aI0
aI0
aI0
aI0
aI0
aI0
aI0
aI1
aa(lp196
I0
aI0
aI1
aI0
aI0
aI0
aI0
aI0
aI0
aa(lp197
I0
aI0
aI0
aI0
aI0
aI0
aI0
aI1
aI0
aa(lp198
I0
aI0
aI0
aI0
aI1
aI0
aI0
aI0
aI0
aa(lp199
I0
aI1
aI0
aI0
aI0
aI0
aI0
aI0
aI0
aa(lp200
F0.12140025306502385
aF0.12140025306502385
aF0.12140025306502385
aF0.028797975479809123
aF0.12140025306502385
aF0.12140025306502385
aF0.12140025306502385
aF0.12140025306502385
aF0.12140025306502385
aa(lp201
F0.025895606703145453
aF0.1623507322161424
aF0.1623507322161424
aI0
aF0.1623507322161424
aF0.1623507322161424
aF0.1623507322161424
aI0
aF0.1623507322161424
aa(lp202
I0
aF0.24524187090179797
aF0.24524187090179797
aI0
aI0
aF0.019032516392808098
aF0.24524187090179797
aI0
aF0.24524187090179797
aa(lp203
F0.041209994245545084
aF0.13697000082206498
aF0.13697000082206498
aI0
aF0.13697000082206498
aF0.13697000082206498
aF0.13697000082206498
aF0.13697000082206498
aF0.13697000082206498
aa(lp204
I0
aF0.19136060735605726
aF0.19136060735605726
aI0
aI0
aF0.19136060735605726
aF0.19136060735605726
aF0.04319696321971368
aF0.19136060735605726
aa(lp205
I0
aF0.3182275627564985
aF0.3182275627564985
aI0
aI0
aF0.045317311730504545
aF0.3182275627564985
aI0
aI0
aa(lp206
I0
aF0.04758129098202024
aF0.9524187090179798
aI0
aI0
aI0
aI0
aI0
aI0
aa(lp207
I0
aI0
aI0
aI1
aI0
aI0
aI0
aI0
aI0
aa(lp208
I0
aI0
aI0
aI0
aI1
aI0
aI0
aI0
aI0
aa(lp209
I0
aI0
aI0
aI0
aI0
aI0
aI0
aI0
aI1
aa(lp210
I0
aI0
aI0
aI0
aI0
aI0
aI1
aI0
aI0
aa(lp211
I0
aI0
aI1
aI0
aI0
aI0
aI0
aI0
aI0
aa(lp212
I1
aI0
aI0
aI0
aI0
aI0
aI0
aI0
aI0
aa(lp213
I0
aI0
aI0
aI1
aI0
aI0
aI0
aI0
aI0
aa(lp214
I0
aI0
aI0
aI0
aI0
aI0
aI0
aI0
aI1
aa(lp215
I0
aI0
aI0
aI0
aI1
aI0
aI0
aI0
aI0
aa(lp216
F0.12042111175049498
aF0.036631105996040074
aF0.12042111175049498
aF0.12042111175049498
aF0.12042111175049498
aF0.12042111175049498
aF0.12042111175049498
aF0.12042111175049498
aF0.12042111175049498
aa(lp217
I0
aI0
aF0.0370259684740403
aF0.16049567192099326
aF0.16049567192099326
aF0.16049567192099326
aF0.16049567192099326
aF0.16049567192099326
aF0.16049567192099326
aa(lp218
I0
aI0
aI0
aI0
aF0.2409365376538991
aF0.2409365376538991
aF0.03625384938440364
aF0.2409365376538991
aF0.2409365376538991
aa(lp219
I0
aI0
aI0
aI0
aF0.48413956967265986
aF0.03172086065468016
aI0
aF0.48413956967265986
aI0
aa(lp220
F0.13697000082206498
aF0.13697000082206498
aI0
aF0.13697000082206498
aF0.13697000082206498
aF0.041209994245545084
aF0.13697000082206498
aF0.13697000082206498
aF0.13697000082206498
aa(lp221
F0.19136060735605726
aF0.04319696321971368
aI0
aF0.19136060735605726
aF0.19136060735605726
aI0
aF0.19136060735605726
aF0.19136060735605726
aI0
aa(lp222
F0.3182275627564985
aI0
aI0
aF0.3182275627564985
aI0
aI0
aF0.045317311730504545
aF0.3182275627564985
aI0
aa(lp223
F0.9524187090179798
aI0
aI0
aF0.04758129098202024
aI0
aI0
aI0
aI0
aI0
aa(lp224
I0
aI0
aI1
aI0
aI0
aI0
aI0
aI0
aI0
aa(lp225
I0
aI0
aI0
aI0
aI0
aI0
aI0
aI0
aI1
aa(lp226
I0
aI0
aI0
aI0
aI1
aI0
aI0
aI0
aI0
aa(lp227
I0
aI0
aI0
aI0
aI0
aI0
aI0
aI1
aI0
aa(lp228
I1
aI0
aI0
aI0
aI0
aI0
aI0
aI0
aI0
aa(lp229
F0.041209994245545084
aF0.13697000082206498
aI0
aF0.13697000082206498
aF0.13697000082206498
aF0.13697000082206498
aF0.13697000082206498
aF0.13697000082206498
aF0.13697000082206498
aa(lp230
I0
aF0.19136060735605726
aI0
aF0.19136060735605726
aF0.19136060735605726
aI0
aF0.19136060735605726
aF0.19136060735605726
aF0.04319696321971368
aa(lp231
I0
aF0.3182275627564985
aI0
aF0.045317311730504545
aF0.3182275627564985
aI0
aI0
aF0.3182275627564985
aI0
aa(lp232
I0
aI0
aI0
aI0
aF0.9524187090179798
aI0
aI0
aF0.04758129098202024
aI0
aa(lp233
I0
aI0
aI1
aI0
aI0
aI0
aI0
aI0
aI0
aa(lp234
I0
aI0
aI0
aI0
aI0
aI1
aI0
aI0
aI0
aa(lp235
I0
aI0
aI0
aI0
aI0
aI0
aI1
aI0
aI0
aa(lp236
I0
aI1
aI0
aI0
aI0
aI0
aI0
aI0
aI0
aa(lp237
I0
aI0
aI0
aI0
aI1
aI0
aI0
aI0
aI0
aa(lp238
F0.13822889679788783
aI0
aF0.13822889679788783
aF0.13822889679788783
aF0.13822889679788783
aF0.13822889679788783
aF0.13822889679788783
aF0.13822889679788783
aF0.032397722414785265
aa(lp239
F0.19395769176926606
aI0
aI0
aF0.19395769176926606
aF0.030211541153669697
aF0.19395769176926606
aF0.19395769176926606
aF0.19395769176926606
aI0
aa(lp240
F0.3254031181696633
aI0
aI0
aI0
aI0
aF0.3254031181696633
aF0.02379064549101012
aF0.3254031181696633
aI0
aa(lp241
I0
aI1
aI0
aI0
aI0
aI0
aI0
aI0
aI0
aa(lp242
I0
aI0
aI1
aI0
aI0
aI0
aI0
aI0
aI0
aa(lp243
I0
aI0
aI0
aI1
aI0
aI0
aI0
aI0
aI0
aa(lp244
I1
aI0
aI0
aI0
aI0
aI0
aI0
aI0
aI0
aa(lp245
F0.13822889679788783
aI0
aF0.13822889679788783
aF0.13822889679788783
aF0.13822889679788783
aF0.13822889679788783
aF0.13822889679788783
aF0.032397722414785265
aF0.13822889679788783
aa(lp246
F0.19395769176926606
aI0
aF0.19395769176926606
aF0.030211541153669697
aF0.19395769176926606
aI0
aF0.19395769176926606
aI0
aF0.19395769176926606
aa(lp247
F0.3254031181696633
aI0
aI0
aI0
aF0.02379064549101012
aI0
aF0.3254031181696633
aI0
aF0.3254031181696633
aa(lp248
I0
aI1
aI0
aI0
aI0
aI0
aI0
aI0
aI0
aa(lp249
I0
aI0
aI0
aI0
aI0
aI1
aI0
aI0
aI0
aa(lp250
I0
aI0
aI1
aI0
aI0
aI0
aI0
aI0
aI0
aa(lp251
I0
aI0
aI0
aI0
aI0
aI0
aI0
aI0
aI1
aa(lp252
F0.032397722414785265
aF0.13822889679788783
aF0.13822889679788783
aI0
aF0.13822889679788783
aF0.13822889679788783
aF0.13822889679788783
aF0.13822889679788783
aF0.13822889679788783
aa(lp253
I0
aF0.19395769176926606
aF0.19395769176926606
aI0
aI0
aF0.19395769176926606
aF0.19395769176926606
aF0.030211541153669697
aF0.19395769176926606
aa(lp254
I0
aF0.02379064549101012
aI0
aI0
aI0
aF0.3254031181696633
aF0.3254031181696633
aI0
aF0.3254031181696633
aa(lp255
I0
aI0
aI0
aI1
aI0
aI0
aI0
aI0
aI0
aa(lp256
I0
aI0
aI0
aI0
aI1
aI0
aI0
aI0
aI0
aa(lp257
I0
aI0
aI1
aI0
aI0
aI0
aI0
aI0
aI0
aa(lp258
I0
aI0
aI0
aI0
aI0
aI0
aI1
aI0
aI0
aa(lp259
F0.032397722414785265
aF0.13822889679788783
aF0.13822889679788783
aF0.13822889679788783
aF0.13822889679788783
aF0.13822889679788783
aF0.13822889679788783
aI0
aF0.13822889679788783
aa(lp260
I0
aF0.19395769176926606
aF0.030211541153669697
aF0.19395769176926606
aF0.19395769176926606
aF0.19395769176926606
aI0
aI0
aF0.19395769176926606
aa(lp261
I0
aF0.3254031181696633
aI0
aI0
aF0.3254031181696633
aF0.02379064549101012
aI0
aI0
aF0.3254031181696633
aa(lp262
I0
aI0
aI0
aI0
aI0
aI0
aI0
aI1
aI0
aa(lp263
I0
aI0
aI0
aI0
aI0
aI0
aI1
aI0
aI0
aa(lp264
I0
aI0
aI0
aI1
aI0
aI0
aI0
aI0
aI0
aa(lp265
I0
aI0
aI0
aI0
aI0
aI0
aI0
aI0
aI1
aa(lp266
F0.1396201920192497
aF0.1396201920192497
aI0
aF0.1396201920192497
aF0.022658655865252272
aF0.1396201920192497
aF0.1396201920192497
aF0.1396201920192497
aF0.1396201920192497
aa(lp267
F0.19682791393453197
aF0.01586043032734008
aI0
aF0.19682791393453197
aI0
aF0.19682791393453197
aF0.19682791393453197
aF0.19682791393453197
aI0
aa(lp268
I0
aI0
aI1
aI0
aI0
aI0
aI0
aI0
aI0
aa(lp269
I0
aI0
aI0
aI0
aI0
aI0
aI0
aI0
aI1
aa(lp270
I0
aI0
aI0
aI0
aI0
aI1
aI0
aI0
aI0
aa(lp271
F0.13822889679788783
aF0.032397722414785265
aF0.13822889679788783
aF0.13822889679788783
aF0.13822889679788783
aF0.13822889679788783
aF0.13822889679788783
aF0.13822889679788783
aI0
aa(lp272
F0.19395769176926606
aI0
aF0.19395769176926606
aF0.19395769176926606
aI0
aF0.19395769176926606
aF0.19395769176926606
aF0.030211541153669697
aI0
aa(lp273
F0.3254031181696633
aI0
aF0.3254031181696633
aI0
aI0
aF0.02379064549101012
aF0.3254031181696633
aI0
aI0
aa(lp274
I0
aI0
aI0
aI0
aI0
aI0
aI0
aI0
aI1
aa(lp275
I0
aI0
aI0
aI0
aI1
aI0
aI0
aI0
aI0
aa(lp276
I0
aI0
aI0
aI1
aI0
aI0
aI0
aI0
aI0
aa(lp277
I1
aI0
aI0
aI0
aI0
aI0
aI0
aI0
aI0
aa(lp278
F0.13697000082206498
aF0.13697000082206498
aF0.13697000082206498
aF0.13697000082206498
aF0.13697000082206498
aF0.13697000082206498
aF0.041209994245545084
aI0
aF0.13697000082206498
aa(lp279
F0.19136060735605726
aF0.04319696321971368
aI0
aF0.19136060735605726
aF0.19136060735605726
aF0.19136060735605726
aI0
aI0
aF0.19136060735605726
aa(lp280
F0.045317311730504545
aI0
aI0
aF0.3182275627564985
aF0.3182275627564985
aI0
aI0
aI0
aF0.3182275627564985
aa(lp281
I0
aI0
aI0
aI0
aF0.04758129098202024
aI0
aI0
aI0
aF0.9524187090179798
aa(lp282
I0
aI0
aI0
aI0
aI0
aI0
aI0
aI1
aI0
aa(lp283
I0
aI0
aI1
aI0
aI0
aI0
aI0
aI0
aI0
aa(lp284
I0
aI0
aI0
aI0
aI0
aI1
aI0
aI0
aI0
aa(lp285
I0
aI0
aI0
aI1
aI0
aI0
aI0
aI0
aI0
aa(lp286
I0
aI0
aI0
aI0
aI0
aI0
aI0
aI0
aI1
aa(lp287
F0.13697000082206498
aF0.13697000082206498
aF0.13697000082206498
aF0.041209994245545084
aF0.13697000082206498
aI0
aF0.13697000082206498
aF0.13697000082206498
aF0.13697000082206498
aa(lp288
F0.19136060735605726
aF0.04319696321971368
aI0
aI0
aF0.19136060735605726
aI0
aF0.19136060735605726
aF0.19136060735605726
aF0.19136060735605726
aa(lp289
F0.3182275627564985
aI0
aI0
aI0
aF0.3182275627564985
aI0
aI0
aF0.3182275627564985
aF0.045317311730504545
aa(lp290
F0.9524187090179798
aI0
aI0
aI0
aF0.04758129098202024
aI0
aI0
aI0
aI0
aa(lp291
F0.11953514805156436
aF0.11953514805156436
aF0.11953514805156436
aF0.11953514805156436
aF0.11953514805156436
aF0.04371881558748517
aF0.11953514805156436
aF0.11953514805156436
aF0.11953514805156436
aa(lp292
F0.15881714395322952
aF0.15881714395322952
aF0.04709713628062295
aI0
aF0.15881714395322952
aI0
aF0.15881714395322952
aF0.15881714395322952
aF0.15881714395322952
aa(lp293
F0.23704091103408592
aI0
aI0
aI0
aF0.23704091103408592
aI0
aF0.051836355863656425
aF0.23704091103408592
aF0.23704091103408592
aa(lp294
F0.46978845884633025
aI0
aI0
aI0
aF0.46978845884633025
aI0
aI0
aF0.06042308230733939
aI0
aa(lp295
F0.09516258196404048
aI0
aI0
aI0
aI0
aI0
aI0
aI0
aI0
aa(lp296
I0
aI0
aI1
aI0
aI0
aI0
aI0
aI0
aI0
aa(lp297
I0
aI0
aI0
aI0
aI0
aI1
aI0
aI0
aI0
aa(lp298
I0
aI0
aI0
aI1
aI0
aI0
aI0
aI0
aI0
aa(lp299
I0
aI0
aI0
aI0
aI1
aI0
aI0
aI0
aI0
aa(lp300
F0.12042111175049498
aF0.12042111175049498
aF0.12042111175049498
aF0.12042111175049498
aF0.12042111175049498
aF0.12042111175049498
aF0.12042111175049498
aF0.12042111175049498
aF0.036631105996040074
aa(lp301
F0.0370259684740403
aF0.16049567192099326
aI0
aF0.16049567192099326
aF0.16049567192099326
aF0.16049567192099326
aF0.16049567192099326
aF0.16049567192099326
aI0
aa(lp302
I0
aF0.03625384938440364
aI0
aF0.2409365376538991
aF0.2409365376538991
aI0
aF0.2409365376538991
aF0.2409365376538991
aI0
aa(lp303
I0
aI0
aI0
aI0
aF0.48413956967265986
aI0
aF0.03172086065468016
aF0.48413956967265986
aI0
aa(lp304
I0
aI0
aI0
aI0
aI0
aI0
aI0
aI1
aI0
aa(lp305
I0
aI0
aI0
aI0
aI0
aI0
aI0
aI0
aI1
aa(lp306
I0
aI0
aI0
aI0
aI0
aI1
aI0
aI0
aI0
aa(lp307
I0
aI0
aI0
aI0
aI0
aI0
aI1
aI0
aI0
aa(lp308
F0.12042111175049498
aF0.12042111175049498
aF0.12042111175049498
aF0.12042111175049498
aF0.036631105996040074
aF0.12042111175049498
aF0.12042111175049498
aF0.12042111175049498
aF0.12042111175049498
aa(lp309
F0.16049567192099326
aF0.16049567192099326
aF0.16049567192099326
aF0.0370259684740403
aI0
aF0.16049567192099326
aF0.16049567192099326
aI0
aF0.16049567192099326
aa(lp310
F0.2409365376538991
aF0.03625384938440364
aF0.2409365376538991
aI0
aI0
aF0.2409365376538991
aF0.2409365376538991
aI0
aI0
aa(lp311
F0.03172086065468016
aI0
aF0.48413956967265986
aI0
aI0
aI0
aF0.48413956967265986
aI0
aI0
aa(lp312
F0.13697000082206498
aF0.13697000082206498
aI0
aF0.13697000082206498
aF0.041209994245545084
aF0.13697000082206498
aF0.13697000082206498
aF0.13697000082206498
aF0.13697000082206498
aa(lp313
F0.19136060735605726
aI0
aI0
aF0.04319696321971368
aI0
aF0.19136060735605726
aF0.19136060735605726
aF0.19136060735605726
aF0.19136060735605726
aa(lp314
F0.3182275627564985
aI0
aI0
aI0
aI0
aF0.3182275627564985
aI0
aF0.045317311730504545
aF0.3182275627564985
aa(lp315
F0.9524187090179798
aI0
aI0
aI0
aI0
aI0
aI0
aI0
aF0.04758129098202024
aa(lp316
I0
aI0
aI1
aI0
aI0
aI0
aI0
aI0
aI0
aa(lp317
I0
aI1
aI0
aI0
aI0
aI0
aI0
aI0
aI0
aa(lp318
I0
aI0
aI0
aI0
aI0
aI0
aI1
aI0
aI0
aa(lp319
I0
aI0
aI0
aI0
aI0
aI1
aI0
aI0
aI0
aa(lp320
I1
aI0
aI0
aI0
aI0
aI0
aI0
aI0
aI0
aa(lp321
F0.13822889679788783
aF0.13822889679788783
aI0
aF0.032397722414785265
aF0.13822889679788783
aF0.13822889679788783
aF0.13822889679788783
aF0.13822889679788783
aF0.13822889679788783
aa(lp322
F0.19395769176926606
aI0
aI0
aI0
aF0.19395769176926606
aF0.19395769176926606
aF0.19395769176926606
aF0.030211541153669697
aF0.19395769176926606
aa(lp323
F0.3254031181696633
aI0
aI0
aI0
aI0
aF0.3254031181696633
aF0.02379064549101012
aI0
aF0.3254031181696633
aa(lp324
I0
aI0
aI1
aI0
aI0
aI0
aI0
aI0
aI0
aa(lp325
I0
aI1
aI0
aI0
aI0
aI0
aI0
aI0
aI0
aa(lp326
I0
aI0
aI0
aI0
aI1
aI0
aI0
aI0
aI0
aa(lp327
I1
aI0
aI0
aI0
aI0
aI0
aI0
aI0
aI0
aa(lp328
I0
aI0
aI0
aI0
aI0
aI0
aI1
aI0
aI0
aa(lp329
I0
aI0
aI0
aI0
aI0
aI0
aI0
aI0
aI1
aa(lp330
I0
aI0
aI0
aI0
aI1
aI0
aI0
aI0
aI0
aa(lp331
I0
aI0
aI1
aI0
aI0
aI0
aI0
aI0
aI0
aa(lp332
F0.12042111175049498
aF0.036631105996040074
aF0.12042111175049498
aF0.12042111175049498
aF0.12042111175049498
aF0.12042111175049498
aF0.12042111175049498
aF0.12042111175049498
aF0.12042111175049498
aa(lp333
F0.16049567192099326
aI0
aF0.16049567192099326
aF0.16049567192099326
aF0.16049567192099326
aF0.0370259684740403
aI0
aF0.16049567192099326
aF0.16049567192099326
aa(lp334
F0.2409365376538991
aI0
aF0.2409365376538991
aF0.2409365376538991
aF0.2409365376538991
aI0
aI0
aF0.03625384938440364
aI0
aa(lp335
F0.03172086065468016
aI0
aF0.48413956967265986
aF0.48413956967265986
aI0
aI0
aI0
aI0
aI0
aa(lp336
I0
aI0
aI0
aI0
aI0
aI0
aI1
aI0
aI0
aa(lp337
I0
aI0
aI1
aI0
aI0
aI0
aI0
aI0
aI0
aa(lp338
I0
aI0
aI0
aI0
aI1
aI0
aI0
aI0
aI0
aa(lp339
F0.12140025306502385
aF0.028797975479809123
aF0.12140025306502385
aF0.12140025306502385
aF0.12140025306502385
aF0.12140025306502385
aF0.12140025306502385
aF0.12140025306502385
aF0.12140025306502385
aa(lp340
F0.1623507322161424
aI0
aF0.1623507322161424
aF0.1623507322161424
aF0.1623507322161424
aF0.025895606703145453
aI0
aF0.1623507322161424
aF0.1623507322161424
aa(lp341
F0.24524187090179797
aI0
aI0
aF0.24524187090179797
aF0.24524187090179797
aI0
aI0
aF0.019032516392808098
aF0.24524187090179797
aa(lp342
F0.13697000082206498
aF0.13697000082206498
aF0.13697000082206498
aF0.041209994245545084
aF0.13697000082206498
aF0.13697000082206498
aF0.13697000082206498
aI0
aF0.13697000082206498
aa(lp343
F0.19136060735605726
aF0.19136060735605726
aF0.04319696321971368
aI0
aF0.19136060735605726
aF0.19136060735605726
aI0
aI0
aF0.19136060735605726
aa(lp344
F0.3182275627564985
aI0
aI0
aI0
aF0.045317311730504545
aF0.3182275627564985
aI0
aI0
aF0.3182275627564985
aa(lp345
I0
aI0
aI0
aI0
aI0
aF0.9524187090179798
aI0
aI0
aF0.04758129098202024
aa(lp346
F0.11953514805156436
aF0.11953514805156436
aF0.11953514805156436
aF0.11953514805156436
aF0.11953514805156436
aF0.11953514805156436
aF0.11953514805156436
aF0.04371881558748517
aF0.11953514805156436
aa(lp347
F0.15881714395322952
aF0.15881714395322952
aF0.15881714395322952
aI0
aF0.15881714395322952
aF0.15881714395322952
aF0.04709713628062295
aI0
aF0.15881714395322952
aa(lp348
F0.23704091103408592
aF0.051836355863656425
aI0
aI0
aF0.23704091103408592
aF0.23704091103408592
aI0
aI0
aF0.23704091103408592
aa(lp349
F0.06042308230733939
aI0
aI0
aI0
aI0
aF0.46978845884633025
aI0
aI0
aF0.46978845884633025
aa(lp350
I0
aI0
aI0
aI0
aI0
aF0.09516258196404048
aI0
aI0
aI0
aa(lp351
F0.13822889679788783
aF0.13822889679788783
aF0.13822889679788783
aF0.13822889679788783
aI0
aF0.13822889679788783
aF0.032397722414785265
aF0.13822889679788783
aF0.13822889679788783
aa(lp352
I0
aF0.19395769176926606
aF0.19395769176926606
aF0.030211541153669697
aI0
aF0.19395769176926606
aI0
aF0.19395769176926606
aF0.19395769176926606
aa(lp353
I0
aI0
aF0.3254031181696633
aI0
aI0
aF0.02379064549101012
aI0
aF0.3254031181696633
aF0.3254031181696633
aa(lp354
I0
aI0
aI0
aI0
aI1
aI0
aI0
aI0
aI0
aa(lp355
I1
aI0
aI0
aI0
aI0
aI0
aI0
aI0
aI0
aa(lp356
I0
aI1
aI0
aI0
aI0
aI0
aI0
aI0
aI0
aa(lp357
I0
aI0
aI0
aI0
aI0
aI0
aI0
aI0
aI1
aa(lp358
F0.13697000082206498
aF0.13697000082206498
aF0.13697000082206498
aF0.13697000082206498
aF0.13697000082206498
aF0.13697000082206498
aF0.13697000082206498
aF0.041209994245545084
aI0
aa(lp359
F0.04319696321971368
aF0.19136060735605726
aF0.19136060735605726
aI0
aF0.19136060735605726
aF0.19136060735605726
aF0.19136060735605726
aI0
aI0
aa(lp360
I0
aF0.3182275627564985
aF0.3182275627564985
aI0
aF0.045317311730504545
aI0
aF0.3182275627564985
aI0
aI0
aa(lp361
I0
aI0
aF0.9524187090179798
aI0
aI0
aI0
aF0.04758129098202024
aI0
aI0
aa(lp362
I0
aI0
aI0
aI0
aI0
aI0
aI0
aI0
aI1
aa(lp363
I0
aI0
aI0
aI1
aI0
aI0
aI0
aI0
aI0
aa(lp364
I0
aI0
aI0
aI0
aI0
aI1
aI0
aI0
aI0
aa(lp365
I0
aI1
aI0
aI0
aI0
aI0
aI0
aI0
aI0
aa(lp366
I0
aI0
aI1
aI0
aI0
aI0
aI0
aI0
aI0
aa(lp367
F0.13697000082206498
aF0.041209994245545084
aI0
aF0.13697000082206498
aF0.13697000082206498
aF0.13697000082206498
aF0.13697000082206498
aF0.13697000082206498
aF0.13697000082206498
aa(lp368
F0.04319696321971368
aI0
aI0
aI0
aF0.19136060735605726
aF0.19136060735605726
aF0.19136060735605726
aF0.19136060735605726
aF0.19136060735605726
aa(lp369
I0
aI0
aI0
aI0
aF0.3182275627564985
aF0.3182275627564985
aF0.3182275627564985
aI0
aF0.045317311730504545
aa(lp370
I0
aI0
aI0
aI0
aI0
aF0.9524187090179798
aF0.04758129098202024
aI0
aI0
aa(lp371
I0
aI0
aI1
aI0
aI0
aI0
aI0
aI0
aI0
aa(lp372
I0
aI0
aI0
aI1
aI0
aI0
aI0
aI0
aI0
aa(lp373
I0
aI0
aI0
aI0
aI0
aI0
aI0
aI1
aI0
aa(lp374
I0
aI0
aI0
aI0
aI1
aI0
aI0
aI0
aI0
aa(lp375
I0
aI0
aI0
aI0
aI0
aI1
aI0
aI0
aI0
aa(lp376
F0.032397722414785265
aF0.13822889679788783
aI0
aF0.13822889679788783
aF0.13822889679788783
aF0.13822889679788783
aF0.13822889679788783
aF0.13822889679788783
aF0.13822889679788783
aa(lp377
I0
aF0.19395769176926606
aI0
aI0
aF0.19395769176926606
aF0.19395769176926606
aF0.030211541153669697
aF0.19395769176926606
aF0.19395769176926606
aa(lp378
I0
aF0.3254031181696633
aI0
aI0
aI0
aF0.3254031181696633
aI0
aF0.3254031181696633
aF0.02379064549101012
aa(lp379
I0
aI0
aI1
aI0
aI0
aI0
aI0
aI0
aI0
aa(lp380
I0
aI0
aI0
aI1
aI0
aI0
aI0
aI0
aI0
aa(lp381
I0
aI0
aI0
aI0
aI1
aI0
aI0
aI0
aI0
aa(lp382
I0
aI0
aI0
aI0
aI0
aI1
aI0
aI0
aI0
aa(lp383
I0
aI0
aI0
aI0
aI1
aI0
aI0
aI0
aI0
aa(lp384
I0
aI0
aI0
aI1
aI0
aI0
aI0
aI0
aI0
aa(lp385
I1
aI0
aI0
aI0
aI0
aI0
aI0
aI0
aI0
aa(lp386
I0
aI0
aI0
aI0
aI0
aI1
aI0
aI0
aI0
aa(lp387
F0.12042111175049498
aF0.036631105996040074
aF0.12042111175049498
aF0.12042111175049498
aF0.12042111175049498
aF0.12042111175049498
aF0.12042111175049498
aF0.12042111175049498
aF0.12042111175049498
aa(lp388
F0.16049567192099326
aI0
aF0.16049567192099326
aF0.16049567192099326
aI0
aF0.16049567192099326
aF0.0370259684740403
aF0.16049567192099326
aF0.16049567192099326
aa(lp389
F0.2409365376538991
aI0
aF0.2409365376538991
aI0
aI0
aF0.2409365376538991
aI0
aF0.03625384938440364
aF0.2409365376538991
aa(lp390
I0
aI0
aF0.03172086065468016
aI0
aI0
aF0.48413956967265986
aI0
aI0
aF0.48413956967265986
aa(lp391
I0
aI0
aI0
aI0
aI0
aI0
aI0
aI0
aI1
aa(lp392
I0
aI1
aI0
aI0
aI0
aI0
aI0
aI0
aI0
aa(lp393
I0
aI0
aI0
aI0
aI1
aI0
aI0
aI0
aI0
aa(lp394
I0
aI0
aI0
aI0
aI0
aI0
aI0
aI1
aI0
aa(lp395
F0.12042111175049498
aF0.12042111175049498
aF0.12042111175049498
aF0.12042111175049498
aF0.12042111175049498
aF0.12042111175049498
aF0.036631105996040074
aF0.12042111175049498
aF0.12042111175049498
aa(lp396
F0.16049567192099326
aF0.16049567192099326
aF0.16049567192099326
aF0.16049567192099326
aF0.16049567192099326
aF0.0370259684740403
aI0
aF0.16049567192099326
aI0
aa(lp397
F0.03625384938440364
aI0
aF0.2409365376538991
aF0.2409365376538991
aF0.2409365376538991
aI0
aI0
aF0.2409365376538991
aI0
aa(lp398
I0
aI0
aF0.03172086065468016
aF0.48413956967265986
aI0
aI0
aI0
aF0.48413956967265986
aI0
aa(lp399
F0.13697000082206498
aF0.041209994245545084
aF0.13697000082206498
aI0
aF0.13697000082206498
aF0.13697000082206498
aF0.13697000082206498
aF0.13697000082206498
aF0.13697000082206498
aa(lp400
I0
aI0
aF0.19136060735605726
aI0
aF0.19136060735605726
aF0.04319696321971368
aF0.19136060735605726
aF0.19136060735605726
aF0.19136060735605726
aa(lp401
I0
aI0
aI0
aI0
aF0.3182275627564985
aI0
aF0.045317311730504545
aF0.3182275627564985
aF0.3182275627564985
aa(lp402
I0
aI0
aI0
aI0
aF0.04758129098202024
aI0
aI0
aF0.9524187090179798
aI0
aa(lp403
F0.11953514805156436
aF0.11953514805156436
aF0.11953514805156436
aF0.04371881558748517
aF0.11953514805156436
aF0.11953514805156436
aF0.11953514805156436
aF0.11953514805156436
aF0.11953514805156436
aa(lp404
F0.04709713628062295
aI0
aF0.15881714395322952
aI0
aF0.15881714395322952
aF0.15881714395322952
aF0.15881714395322952
aF0.15881714395322952
aF0.15881714395322952
aa(lp405
I0
aI0
aF0.051836355863656425
aI0
aF0.23704091103408592
aI0
aF0.23704091103408592
aF0.23704091103408592
aF0.23704091103408592
aa(lp406
I0
aI0
aI0
aI0
aF0.46978845884633025
aI0
aI0
aF0.46978845884633025
aF0.06042308230733939
aa(lp407
I0
aI0
aI0
aI0
aI0
aI0
aI0
aF0.09516258196404048
aI0
aa(lp408
F0.13822889679788783
aF0.13822889679788783
aF0.032397722414785265
aI0
aF0.13822889679788783
aF0.13822889679788783
aF0.13822889679788783
aF0.13822889679788783
aF0.13822889679788783
aa(lp409
F0.19395769176926606
aF0.030211541153669697
aI0
aI0
aF0.19395769176926606
aF0.19395769176926606
aF0.19395769176926606
aI0
aF0.19395769176926606
aa(lp410
F0.3254031181696633
aI0
aI0
aI0
aF0.3254031181696633
aF0.02379064549101012
aI0
aI0
aF0.3254031181696633
aa(lp411
I0
aI0
aI0
aI1
aI0
aI0
aI0
aI0
aI0
aa(lp412
I0
aI0
aI0
aI0
aI0
aI0
aI0
aI1
aI0
aa(lp413
I0
aI0
aI0
aI0
aI0
aI0
aI1
aI0
aI0
aa(lp414
I1
aI0
aI0
aI0
aI0
aI0
aI0
aI0
aI0
aa(lp415
F0.041209994245545084
aF0.13697000082206498
aF0.13697000082206498
aF0.13697000082206498
aF0.13697000082206498
aF0.13697000082206498
aF0.13697000082206498
aI0
aF0.13697000082206498
aa(lp416
I0
aF0.19136060735605726
aI0
aF0.04319696321971368
aF0.19136060735605726
aF0.19136060735605726
aF0.19136060735605726
aI0
aF0.19136060735605726
aa(lp417
I0
aF0.3182275627564985
aI0
aI0
aF0.3182275627564985
aF0.045317311730504545
aI0
aI0
aF0.3182275627564985
aa(lp418
I0
aI0
aI0
aI0
aF0.9524187090179798
aI0
aI0
aI0
aF0.04758129098202024
aa(lp419
I0
aI0
aI0
aI0
aI0
aI0
aI0
aI1
aI0
aa(lp420
I0
aI0
aI1
aI0
aI0
aI0
aI0
aI0
aI0
aa(lp421
I0
aI0
aI0
aI0
aI0
aI0
aI1
aI0
aI0
aa(lp422
I0
aI1
aI0
aI0
aI0
aI0
aI0
aI0
aI0
aa(lp423
I0
aI0
aI0
aI0
aI1
aI0
aI0
aI0
aI0
aa(lp424
I0
aI0
aI0
aI0
aI0
aI1
aI0
aI0
aI0
aa(lp425
I0
aI0
aI0
aI0
aI1
aI0
aI0
aI0
aI0
aa(lp426
I0
aI0
aI1
aI0
aI0
aI0
aI0
aI0
aI0
aa(lp427
I0
aI0
aI0
aI0
aI0
aI0
aI1
aI0
aI0
aa(lp428
F0.12042111175049498
aF0.036631105996040074
aF0.12042111175049498
aF0.12042111175049498
aF0.12042111175049498
aF0.12042111175049498
aF0.12042111175049498
aF0.12042111175049498
aF0.12042111175049498
aa(lp429
F0.16049567192099326
aI0
aF0.16049567192099326
aF0.16049567192099326
aF0.16049567192099326
aI0
aF0.16049567192099326
aF0.0370259684740403
aF0.16049567192099326
aa(lp430
F0.2409365376538991
aI0
aF0.2409365376538991
aF0.2409365376538991
aI0
aI0
aF0.2409365376538991
aI0
aF0.03625384938440364
aa(lp431
F0.03172086065468016
aI0
aI0
aF0.48413956967265986
aI0
aI0
aF0.48413956967265986
aI0
aI0
aa(lp432
F0.13822889679788783
aI0
aF0.032397722414785265
aF0.13822889679788783
aF0.13822889679788783
aF0.13822889679788783
aF0.13822889679788783
aF0.13822889679788783
aF0.13822889679788783
aa(lp433
F0.030211541153669697
aI0
aI0
aF0.19395769176926606
aF0.19395769176926606
aF0.19395769176926606
aI0
aF0.19395769176926606
aF0.19395769176926606
aa(lp434
I0
aI0
aI0
aF0.3254031181696633
aF0.3254031181696633
aF0.02379064549101012
aI0
aI0
aF0.3254031181696633
aa(lp435
I0
aI1
aI0
aI0
aI0
aI0
aI0
aI0
aI0
aa(lp436
I0
aI0
aI0
aI0
aI0
aI0
aI1
aI0
aI0
aa(lp437
I0
aI0
aI0
aI0
aI0
aI0
aI0
aI1
aI0
aa(lp438
I0
aI0
aI0
aI0
aI1
aI0
aI0
aI0
aI0
aa(lp439
I0
aI0
aI0
aI0
aI0
aI0
aI0
aI1
aI0
aa(lp440
I0
aI0
aI0
aI0
aI1
aI0
aI0
aI0
aI0
aa(lp441
I0
aI0
aI1
aI0
aI0
aI0
aI0
aI0
aI0
aa(lp442
I0
aI1
aI0
aI0
aI0
aI0
aI0
aI0
aI0
aa(lp443
F0.12042111175049498
aF0.12042111175049498
aF0.12042111175049498
aF0.036631105996040074
aF0.12042111175049498
aF0.12042111175049498
aF0.12042111175049498
aF0.12042111175049498
aF0.12042111175049498
aa(lp444
F0.16049567192099326
aF0.16049567192099326
aF0.16049567192099326
aI0
aF0.16049567192099326
aF0.16049567192099326
aF0.16049567192099326
aI0
aF0.0370259684740403
aa(lp445
F0.03625384938440364
aF0.2409365376538991
aF0.2409365376538991
aI0
aI0
aF0.2409365376538991
aF0.2409365376538991
aI0
aI0
aa(lp446
I0
aF0.48413956967265986
aI0
aI0
aI0
aF0.03172086065468016
aF0.48413956967265986
aI0
aI0
aa(lp447
F0.041209994245545084
aF0.13697000082206498
aF0.13697000082206498
aF0.13697000082206498
aF0.13697000082206498
aF0.13697000082206498
aI0
aF0.13697000082206498
aF0.13697000082206498
aa(lp448
I0
aI0
aF0.19136060735605726
aF0.19136060735605726
aF0.04319696321971368
aF0.19136060735605726
aI0
aF0.19136060735605726
aF0.19136060735605726
aa(lp449
I0
aI0
aF0.3182275627564985
aF0.3182275627564985
aI0
aI0
aI0
aF0.045317311730504545
aF0.3182275627564985
aa(lp450
I0
aI0
aF0.04758129098202024
aF0.9524187090179798
aI0
aI0
aI0
aI0
aI0
aa(lp451
F0.11953514805156436
aF0.11953514805156436
aF0.11953514805156436
aF0.11953514805156436
aF0.11953514805156436
aF0.11953514805156436
aF0.04371881558748517
aF0.11953514805156436
aF0.11953514805156436
aa(lp452
I0
aF0.04709713628062295
aF0.15881714395322952
aF0.15881714395322952
aF0.15881714395322952
aF0.15881714395322952
aI0
aF0.15881714395322952
aF0.15881714395322952
aa(lp453
I0
aI0
aF0.23704091103408592
aF0.23704091103408592
aI0
aF0.051836355863656425
aI0
aF0.23704091103408592
aF0.23704091103408592
aa(lp454
I0
aI0
aF0.46978845884633025
aF0.46978845884633025
aI0
aI0
aI0
aI0
aF0.06042308230733939
aa(lp455
I0
aI0
aI0
aF0.09516258196404048
aI0
aI0
aI0
aI0
aI0
aa(lp456
I0
aI0
aI0
aI0
aI0
aI0
aI0
aI1
aI0
aa(lp457
I0
aI0
aI0
aI0
aI0
aI1
aI0
aI0
aI0
aa(lp458
I0
aI0
aI0
aI0
aI1
aI0
aI0
aI0
aI0
aa(lp459
I0
aI0
aI0
aI1
aI0
aI0
aI0
aI0
aI0
aa(lp460
F0.12042111175049498
aF0.12042111175049498
aF0.12042111175049498
aF0.12042111175049498
aF0.12042111175049498
aF0.12042111175049498
aF0.12042111175049498
aF0.12042111175049498
aF0.036631105996040074
aa(lp461
F0.16049567192099326
aF0.0370259684740403
aF0.16049567192099326
aF0.16049567192099326
aF0.16049567192099326
aF0.16049567192099326
aF0.16049567192099326
aI0
aI0
aa(lp462
F0.2409365376538991
aI0
aF0.2409365376538991
aF0.2409365376538991
aF0.2409365376538991
aI0
aF0.03625384938440364
aI0
aI0
aa(lp463
F0.48413956967265986
aI0
aF0.03172086065468016
aF0.48413956967265986
aI0
aI0
aI0
aI0
aI0
aa(lp464
F0.13822889679788783
aF0.13822889679788783
aI0
aF0.032397722414785265
aF0.13822889679788783
aF0.13822889679788783
aF0.13822889679788783
aF0.13822889679788783
aF0.13822889679788783
aa(lp465
F0.19395769176926606
aF0.030211541153669697
aI0
aI0
aF0.19395769176926606
aF0.19395769176926606
aF0.19395769176926606
aF0.19395769176926606
aI0
aa(lp466
F0.02379064549101012
aI0
aI0
aI0
aF0.3254031181696633
aF0.3254031181696633
aF0.3254031181696633
aI0
aI0
aa(lp467
I0
aI0
aI1
aI0
aI0
aI0
aI0
aI0
aI0
aa(lp468
I0
aI0
aI0
aI0
aI0
aI0
aI0
aI0
aI1
aa(lp469
I0
aI0
aI0
aI0
aI0
aI0
aI0
aI1
aI0
aa(lp470
I0
aI0
aI0
aI0
aI0
aI1
aI0
aI0
aI0
aa(lp471
F0.13697000082206498
aF0.13697000082206498
aF0.13697000082206498
aF0.13697000082206498
aF0.13697000082206498
aF0.13697000082206498
aF0.041209994245545084
aF0.13697000082206498
aI0
aa(lp472
F0.04319696321971368
aF0.19136060735605726
aF0.19136060735605726
aI0
aF0.19136060735605726
aF0.19136060735605726
aI0
aF0.19136060735605726
aI0
aa(lp473
I0
aF0.3182275627564985
aF0.3182275627564985
aI0
aF0.045317311730504545
aF0.3182275627564985
aI0
aI0
aI0
aa(lp474
I0
aF0.9524187090179798
aI0
aI0
aI0
aF0.04758129098202024
aI0
aI0
aI0
aa(lp475
F0.11953514805156436
aF0.11953514805156436
aF0.11953514805156436
aF0.11953514805156436
aF0.11953514805156436
aF0.11953514805156436
aF0.11953514805156436
aF0.11953514805156436
aF0.04371881558748517
aa(lp476
F0.15881714395322952
aF0.15881714395322952
aF0.15881714395322952
aF0.04709713628062295
aF0.15881714395322952
aF0.15881714395322952
aI0
aF0.15881714395322952
aI0
aa(lp477
I0
aF0.23704091103408592
aF0.23704091103408592
aI0
aF0.23704091103408592
aF0.23704091103408592
aI0
aF0.051836355863656425
aI0
aa(lp478
I0
aF0.46978845884633025
aF0.06042308230733939
aI0
aI0
aF0.46978845884633025
aI0
aI0
aI0
aa(lp479
I0
aF0.09516258196404048
aI0
aI0
aI0
aI0
aI0
aI0
aI0
aa(lp480
F0.13697000082206498
aF0.13697000082206498
aF0.13697000082206498
aI0
aF0.13697000082206498
aF0.13697000082206498
aF0.13697000082206498
aF0.041209994245545084
aF0.13697000082206498
aa(lp481
I0
aF0.19136060735605726
aF0.19136060735605726
aI0
aF0.04319696321971368
aF0.19136060735605726
aF0.19136060735605726
aI0
aF0.19136060735605726
aa(lp482
I0
aI0
aF0.3182275627564985
aI0
aI0
aF0.045317311730504545
aF0.3182275627564985
aI0
aF0.3182275627564985
aa(lp483
I0
aI0
aF0.9524187090179798
aI0
aI0
aI0
aF0.04758129098202024
aI0
aI0
aa(lp484
I0
aI0
aI0
aI1
aI0
aI0
aI0
aI0
aI0
aa(lp485
I1
aI0
aI0
aI0
aI0
aI0
aI0
aI0
aI0
aa(lp486
I0
aI1
aI0
aI0
aI0
aI0
aI0
aI0
aI0
aa(lp487
I0
aI0
aI0
aI0
aI0
aI0
aI0
aI0
aI1
aa(lp488
I0
aI0
aI1
aI0
aI0
aI0
aI0
aI0
aI0
aa(lp489
F0.13822889679788783
aF0.13822889679788783
aF0.032397722414785265
aF0.13822889679788783
aF0.13822889679788783
aF0.13822889679788783
aI0
aF0.13822889679788783
aF0.13822889679788783
aa(lp490
F0.19395769176926606
aF0.19395769176926606
aI0
aF0.19395769176926606
aF0.19395769176926606
aF0.030211541153669697
aI0
aI0
aF0.19395769176926606
aa(lp491
F0.3254031181696633
aF0.3254031181696633
aI0
aF0.02379064549101012
aI0
aI0
aI0
aI0
aF0.3254031181696633
aa(lp492
I0
aI0
aI0
aI0
aI0
aI0
aI1
aI0
aI0
aa(lp493
I0
aI0
aI0
aI0
aI0
aI0
aI0
aI1
aI0
aa(lp494
I0
aI0
aI0
aI0
aI1
aI0
aI0
aI0
aI0
aa(lp495
I0
aI1
aI0
aI0
aI0
aI0
aI0
aI0
aI0
aa(lp496
F0.13697000082206498
aF0.041209994245545084
aF0.13697000082206498
aF0.13697000082206498
aF0.13697000082206498
aF0.13697000082206498
aF0.13697000082206498
aF0.13697000082206498
aI0
aa(lp497
F0.19136060735605726
aI0
aF0.04319696321971368
aF0.19136060735605726
aF0.19136060735605726
aF0.19136060735605726
aF0.19136060735605726
aI0
aI0
aa(lp498
F0.3182275627564985
aI0
aI0
aI0
aF0.3182275627564985
aF0.045317311730504545
aF0.3182275627564985
aI0
aI0
aa(lp499
F0.9524187090179798
aI0
aI0
aI0
aI0
aI0
aF0.04758129098202024
aI0
aI0
aa(lp500
I0
aI0
aI0
aI0
aI0
aI0
aI0
aI0
aI1
aa(lp501
I0
aI0
aI0
aI0
aI0
aI0
aI0
aI1
aI0
aa(lp502
I0
aI0
aI0
aI1
aI0
aI0
aI0
aI0
aI0
aa(lp503
I0
aI0
aI0
aI0
aI1
aI0
aI0
aI0
aI0
aa(lp504
I1
aI0
aI0
aI0
aI0
aI0
aI0
aI0
aI0
aa(lp505
I0
aI0
aI0
aI0
aI0
aI0
aI0
aI1
aI0
aa(lp506
I0
aI0
aI0
aI0
aI0
aI1
aI0
aI0
aI0
aa(lp507
I0
aI1
aI0
aI0
aI0
aI0
aI0
aI0
aI0
aa(lp508
I0
aI0
aI0
aI0
aI1
aI0
aI0
aI0
aI0
aa(lp509
F0.12042111175049498
aF0.12042111175049498
aF0.12042111175049498
aF0.12042111175049498
aF0.12042111175049498
aF0.12042111175049498
aF0.036631105996040074
aF0.12042111175049498
aF0.12042111175049498
aa(lp510
F0.16049567192099326
aF0.16049567192099326
aF0.16049567192099326
aF0.0370259684740403
aF0.16049567192099326
aF0.16049567192099326
aI0
aI0
aF0.16049567192099326
aa(lp511
F0.2409365376538991
aF0.2409365376538991
aF0.03625384938440364
aI0
aF0.2409365376538991
aI0
aI0
aI0
aF0.2409365376538991
aa(lp512
F0.48413956967265986
aI0
aI0
aI0
aF0.48413956967265986
aI0
aI0
aI0
aF0.03172086065468016
aa(lp513
F0.041209994245545084
aF0.13697000082206498
aI0
aF0.13697000082206498
aF0.13697000082206498
aF0.13697000082206498
aF0.13697000082206498
aF0.13697000082206498
aF0.13697000082206498
aa(lp514
I0
aF0.19136060735605726
aI0
aF0.19136060735605726
aF0.19136060735605726
aF0.04319696321971368
aF0.19136060735605726
aF0.19136060735605726
aI0
aa(lp515
I0
aF0.3182275627564985
aI0
aF0.3182275627564985
aF0.045317311730504545
aI0
aF0.3182275627564985
aI0
aI0
aa(lp516
I0
aF0.9524187090179798
aI0
aI0
aI0
aI0
aF0.04758129098202024
aI0
aI0
aa(lp517
F0.11953514805156436
aF0.11953514805156436
aF0.04371881558748517
aF0.11953514805156436
aF0.11953514805156436
aF0.11953514805156436
aF0.11953514805156436
aF0.11953514805156436
aF0.11953514805156436
aa(lp518
I0
aF0.15881714395322952
aI0
aF0.15881714395322952
aF0.15881714395322952
aF0.15881714395322952
aF0.15881714395322952
aF0.15881714395322952
aF0.04709713628062295
aa(lp519
I0
aF0.23704091103408592
aI0
aF0.23704091103408592
aF0.23704091103408592
aI0
aF0.23704091103408592
aF0.051836355863656425
aI0
aa(lp520
I0
aF0.46978845884633025
aI0
aF0.06042308230733939
aI0
aI0
aF0.46978845884633025
aI0
aI0
aa(lp521
I0
aF0.09516258196404048
aI0
aI0
aI0
aI0
aI0
aI0
aI0
aa(lp522
F0.032397722414785265
aF0.13822889679788783
aF0.13822889679788783
aF0.13822889679788783
aF0.13822889679788783
aI0
aF0.13822889679788783
aF0.13822889679788783
aF0.13822889679788783
aa(lp523
I0
aF0.19395769176926606
aF0.19395769176926606
aF0.19395769176926606
aI0
aI0
aF0.19395769176926606
aF0.030211541153669697
aF0.19395769176926606
aa(lp524
I0
aF0.02379064549101012
aF0.3254031181696633
aF0.3254031181696633
aI0
aI0
aI0
aI0
aF0.3254031181696633
aa(lp525
I0
aI0
aI0
aI0
aI0
aI1
aI0
aI0
aI0
aa(lp526
I0
aI0
aI0
aI0
aI1
aI0
aI0
aI0
aI0
aa(lp527
I0
aI0
aI0
aI0
aI0
aI0
aI1
aI0
aI0
aa(lp528
I0
aI0
aI1
aI0
aI0
aI0
aI0
aI0
aI0
aa(lp529
F0.13822889679788783
aF0.13822889679788783
aF0.032397722414785265
aF0.13822889679788783
aF0.13822889679788783
aF0.13822889679788783
aF0.13822889679788783
aF0.13822889679788783
aI0
aa(lp530
F0.19395769176926606
aF0.19395769176926606
aI0
aF0.19395769176926606
aF0.19395769176926606
aF0.19395769176926606
aF0.030211541153669697
aI0
aI0
aa(lp531
F0.3254031181696633
aF0.3254031181696633
aI0
aF0.02379064549101012
aI0
aF0.3254031181696633
aI0
aI0
aI0
aa(lp532
I0
aI0
aI0
aI0
aI0
aI0
aI0
aI0
aI1
aa(lp533
I0
aI0
aI0
aI0
aI0
aI0
aI0
aI1
aI0
aa(lp534
I0
aI0
aI0
aI0
aI1
aI0
aI0
aI0
aI0
aa(lp535
I0
aI1
aI0
aI0
aI0
aI0
aI0
aI0
aI0
aa(lp536
I0
aI0
aI0
aI0
aI0
aI0
aI0
aI1
aI0
aa(lp537
I0
aI0
aI0
aI0
aI0
aI0
aI1
aI0
aI0
aa(lp538
I1
aI0
aI0
aI0
aI0
aI0
aI0
aI0
aI0
aa(lp539
I0
aI0
aI0
aI0
aI0
aI0
aI0
aI0
aI1
aa(lp540
F0.12042111175049498
aF0.12042111175049498
aF0.12042111175049498
aF0.12042111175049498
aF0.12042111175049498
aF0.036631105996040074
aF0.12042111175049498
aF0.12042111175049498
aF0.12042111175049498
aa(lp541
F0.16049567192099326
aF0.16049567192099326
aF0.0370259684740403
aF0.16049567192099326
aF0.16049567192099326
aI0
aF0.16049567192099326
aI0
aF0.16049567192099326
aa(lp542
F0.2409365376538991
aF0.03625384938440364
aI0
aF0.2409365376538991
aF0.2409365376538991
aI0
aI0
aI0
aF0.2409365376538991
aa(lp543
I0
aI0
aI0
aF0.03172086065468016
aF0.48413956967265986
aI0
aI0
aI0
aF0.48413956967265986
aa(lp544
F0.13697000082206498
aF0.13697000082206498
aF0.13697000082206498
aI0
aF0.13697000082206498
aF0.13697000082206498
aF0.13697000082206498
aF0.13697000082206498
aF0.041209994245545084
aa(lp545
F0.19136060735605726
aI0
aF0.19136060735605726
aI0
aF0.19136060735605726
aF0.04319696321971368
aF0.19136060735605726
aF0.19136060735605726
aI0
aa(lp546
F0.3182275627564985
aI0
aI0
aI0
aF0.3182275627564985
aI0
aF0.045317311730504545
aF0.3182275627564985
aI0
aa(lp547
F0.04758129098202024
aI0
aI0
aI0
aF0.9524187090179798
aI0
aI0
aI0
aI0
aa(lp548
I0
aI0
aI0
aI1
aI0
aI0
aI0
aI0
aI0
aa(lp549
I0
aI1
aI0
aI0
aI0
aI0
aI0
aI0
aI0
aa(lp550
I0
aI0
aI1
aI0
aI0
aI0
aI0
aI0
aI0
aa(lp551
I0
aI0
aI0
aI0
aI0
aI0
aI0
aI1
aI0
aa(lp552
I0
aI0
aI0
aI0
aI1
aI0
aI0
aI0
aI0
aa(lp553
F0.13822889679788783
aF0.13822889679788783
aI0
aF0.13822889679788783
aF0.13822889679788783
aF0.13822889679788783
aF0.13822889679788783
aF0.032397722414785265
aF0.13822889679788783
aa(lp554
F0.19395769176926606
aF0.19395769176926606
aI0
aF0.19395769176926606
aF0.030211541153669697
aF0.19395769176926606
aI0
aI0
aF0.19395769176926606
aa(lp555
F0.3254031181696633
aI0
aI0
aF0.02379064549101012
aI0
aF0.3254031181696633
aI0
aI0
aF0.3254031181696633
aa(lp556
I0
aI0
aI1
aI0
aI0
aI0
aI0
aI0
aI0
aa(lp557
I0
aI0
aI0
aI0
aI0
aI0
aI1
aI0
aI0
aa(lp558
I0
aI1
aI0
aI0
aI0
aI0
aI0
aI0
aI0
aa(lp559
I1
aI0
aI0
aI0
aI0
aI0
aI0
aI0
aI0
aa(lp560
F0.13697000082206498
aF0.041209994245545084
aF0.13697000082206498
aF0.13697000082206498
aI0
aF0.13697000082206498
aF0.13697000082206498
aF0.13697000082206498
aF0.13697000082206498
aa(lp561
F0.19136060735605726
aI0
aF0.19136060735605726
aF0.19136060735605726
aI0
aF0.19136060735605726
aF0.04319696321971368
aF0.19136060735605726
aI0
aa(lp562
F0.3182275627564985
aI0
aF0.045317311730504545
aF0.3182275627564985
aI0
aI0
aI0
aF0.3182275627564985
aI0
aa(lp563
F0.9524187090179798
aI0
aI0
aF0.04758129098202024
aI0
aI0
aI0
aI0
aI0
aa(lp564
I0
aI0
aI0
aI0
aI1
aI0
aI0
aI0
aI0
aa(lp565
I0
aI0
aI0
aI0
aI0
aI0
aI0
aI0
aI1
aa(lp566
I0
aI0
aI0
aI0
aI0
aI1
aI0
aI0
aI0
aa(lp567
I0
aI0
aI0
aI0
aI0
aI0
aI0
aI1
aI0
aa(lp568
I1
aI0
aI0
aI0
aI0
aI0
aI0
aI0
aI0
aa(lp569
F0.13697000082206498
aF0.13697000082206498
aF0.13697000082206498
aF0.13697000082206498
aF0.13697000082206498
aF0.13697000082206498
aF0.13697000082206498
aF0.041209994245545084
aI0
aa(lp570
F0.19136060735605726
aF0.19136060735605726
aF0.19136060735605726
aF0.19136060735605726
aF0.04319696321971368
aF0.19136060735605726
aI0
aI0
aI0
aa(lp571
F0.3182275627564985
aI0
aF0.3182275627564985
aF0.3182275627564985
aI0
aF0.045317311730504545
aI0
aI0
aI0
aa(lp572
F0.04758129098202024
aI0
aI0
aF0.9524187090179798
aI0
aI0
aI0
aI0
aI0
aa(lp573
F0.11953514805156436
aF0.11953514805156436
aF0.11953514805156436
aF0.11953514805156436
aF0.11953514805156436
aF0.11953514805156436
aF0.11953514805156436
aF0.11953514805156436
aF0.04371881558748517
aa(lp574
F0.15881714395322952
aF0.15881714395322952
aF0.15881714395322952
aF0.15881714395322952
aF0.15881714395322952
aF0.15881714395322952
aF0.04709713628062295
aI0
aI0
aa(lp575
F0.23704091103408592
aF0.051836355863656425
aF0.23704091103408592
aF0.23704091103408592
aI0
aF0.23704091103408592
aI0
aI0
aI0
aa(lp576
F0.46978845884633025
aI0
aF0.06042308230733939
aF0.46978845884633025
aI0
aI0
aI0
aI0
aI0
aa(lp577
I0
aI0
aI0
aF0.09516258196404048
aI0
aI0
aI0
aI0
aI0
aa(lp578
I0
aI0
aI1
aI0
aI0
aI0
aI0
aI0
aI0
aa(lp579
I0
aI0
aI0
aI1
aI0
aI0
aI0
aI0
aI0
aa(lp580
I0
aI0
aI0
aI0
aI1
aI0
aI0
aI0
aI0
aa(lp581
I0
aI0
aI0
aI0
aI0
aI1
aI0
aI0
aI0
aa(lp582
F0.12042111175049498
aF0.036631105996040074
aF0.12042111175049498
aF0.12042111175049498
aF0.12042111175049498
aF0.12042111175049498
aF0.12042111175049498
aF0.12042111175049498
aF0.12042111175049498
aa(lp583
F0.16049567192099326
aI0
aI0
aF0.16049567192099326
aF0.16049567192099326
aF0.16049567192099326
aF0.16049567192099326
aF0.16049567192099326
aF0.0370259684740403
aa(lp584
F0.03625384938440364
aI0
aI0
aI0
aF0.2409365376538991
aF0.2409365376538991
aF0.2409365376538991
aF0.2409365376538991
aI0
aa(lp585
I0
aI0
aI0
aI0
aI0
aF0.48413956967265986
aF0.03172086065468016
aF0.48413956967265986
aI0
aa(lp586
I0
aF0.1396201920192497
aF0.1396201920192497
aF0.1396201920192497
aF0.1396201920192497
aF0.1396201920192497
aF0.1396201920192497
aF0.022658655865252272
aF0.1396201920192497
aa(lp587
I0
aF0.19682791393453197
aI0
aF0.19682791393453197
aF0.19682791393453197
aF0.19682791393453197
aF0.01586043032734008
aI0
aF0.19682791393453197
aa(lp588
I1
aI0
aI0
aI0
aI0
aI0
aI0
aI0
aI0
aa(lp589
I0
aI0
aI1
aI0
aI0
aI0
aI0
aI0
aI0
aa(lp590
I0
aI1
aI0
aI0
aI0
aI0
aI0
aI0
aI0
aa(lp591
F0.13697000082206498
aF0.13697000082206498
aF0.13697000082206498
aF0.13697000082206498
aF0.13697000082206498
aF0.13697000082206498
aI0
aF0.13697000082206498
aF0.041209994245545084
aa(lp592
I0
aF0.19136060735605726
aF0.19136060735605726
aF0.04319696321971368
aF0.19136060735605726
aF0.19136060735605726
aI0
aF0.19136060735605726
aI0
aa(lp593
I0
aF0.3182275627564985
aF0.3182275627564985
aI0
aI0
aF0.045317311730504545
aI0
aF0.3182275627564985
aI0
aa(lp594
I0
aF0.04758129098202024
aF0.9524187090179798
aI0
aI0
aI0
aI0
aI0
aI0
aa(lp595
I0
aI0
aI0
aI0
aI0
aI0
aI1
aI0
aI0
aa(lp596
I1
aI0
aI0
aI0
aI0
aI0
aI0
aI0
aI0
aa(lp597
I0
aI0
aI0
aI0
aI1
aI0
aI0
aI0
aI0
aa(lp598
I0
aI0
aI0
aI0
aI0
aI0
aI0
aI1
aI0
aa(lp599
I0
aI0
aI1
aI0
aI0
aI0
aI0
aI0
aI0
aa(lp600
F0.13822889679788783
aF0.13822889679788783
aI0
aF0.032397722414785265
aF0.13822889679788783
aF0.13822889679788783
aF0.13822889679788783
aF0.13822889679788783
aF0.13822889679788783
aa(lp601
F0.19395769176926606
aF0.19395769176926606
aI0
aI0
aF0.19395769176926606
aF0.19395769176926606
aF0.030211541153669697
aF0.19395769176926606
aI0
aa(lp602
I0
aF0.3254031181696633
aI0
aI0
aF0.02379064549101012
aF0.3254031181696633
aI0
aF0.3254031181696633
aI0
aa(lp603
I0
aI0
aI1
aI0
aI0
aI0
aI0
aI0
aI0
aa(lp604
I0
aI0
aI0
aI0
aI0
aI0
aI0
aI0
aI1
aa(lp605
I1
aI0
aI0
aI0
aI0
aI0
aI0
aI0
aI0
aa(lp606
I0
aI1
aI0
aI0
aI0
aI0
aI0
aI0
aI0
aa(lp607
I0
aI0
aI0
aI1
aI0
aI0
aI0
aI0
aI0
aa(lp608
I0
aI0
aI0
aI0
aI0
aI1
aI0
aI0
aI0
aa(lp609
I0
aI0
aI1
aI0
aI0
aI0
aI0
aI0
aI0
aa(lp610
I0
aI0
aI0
aI0
aI1
aI0
aI0
aI0
aI0
aa(lp611
F0.12042111175049498
aF0.12042111175049498
aF0.12042111175049498
aF0.12042111175049498
aF0.12042111175049498
aF0.12042111175049498
aF0.12042111175049498
aF0.12042111175049498
aF0.036631105996040074
aa(lp612
F0.0370259684740403
aF0.16049567192099326
aF0.16049567192099326
aI0
aF0.16049567192099326
aF0.16049567192099326
aF0.16049567192099326
aF0.16049567192099326
aI0
aa(lp613
I0
aF0.03625384938440364
aF0.2409365376538991
aI0
aF0.2409365376538991
aI0
aF0.2409365376538991
aF0.2409365376538991
aI0
aa(lp614
I0
aI0
aI0
aI0
aF0.48413956967265986
aI0
aF0.48413956967265986
aF0.03172086065468016
aI0
aa(lp615
I0
aI0
aI1
aI0
aI0
aI0
aI0
aI0
aI0
aa(lp616
I0
aI1
aI0
aI0
aI0
aI0
aI0
aI0
aI0
aa(lp617
I0
aI0
aI0
aI0
aI0
aI0
aI0
aI0
aI1
aa(lp618
I1
aI0
aI0
aI0
aI0
aI0
aI0
aI0
aI0
aa(lp619
F0.12042111175049498
aF0.12042111175049498
aF0.12042111175049498
aF0.12042111175049498
aF0.036631105996040074
aF0.12042111175049498
aF0.12042111175049498
aF0.12042111175049498
aF0.12042111175049498
aa(lp620
F0.16049567192099326
aF0.16049567192099326
aI0
aF0.16049567192099326
aI0
aF0.0370259684740403
aF0.16049567192099326
aF0.16049567192099326
aF0.16049567192099326
aa(lp621
F0.2409365376538991
aI0
aI0
aF0.2409365376538991
aI0
aI0
aF0.03625384938440364
aF0.2409365376538991
aF0.2409365376538991
aa(lp622
F0.48413956967265986
aI0
aI0
aF0.48413956967265986
aI0
aI0
aI0
aF0.03172086065468016
aI0
aa(lp623
I0
aF0.1396201920192497
aF0.1396201920192497
aF0.1396201920192497
aF0.022658655865252272
aF0.1396201920192497
aF0.1396201920192497
aF0.1396201920192497
aF0.1396201920192497
aa(lp624
I0
aI0
aF0.19682791393453197
aF0.01586043032734008
aI0
aF0.19682791393453197
aF0.19682791393453197
aF0.19682791393453197
aF0.19682791393453197
aa(lp625
I1
aI0
aI0
aI0
aI0
aI0
aI0
aI0
aI0
aa(lp626
I0
aI1
aI0
aI0
aI0
aI0
aI0
aI0
aI0
aa(lp627
I0
aI0
aI1
aI0
aI0
aI0
aI0
aI0
aI0
aa(lp628
I0
aI0
aI0
aI0
aI0
aI0
aI0
aI0
aI1
aa(lp629
I0
aI0
aI0
aI0
aI0
aI0
aI0
aI1
aI0
aa(lp630
I0
aI0
aI0
aI0
aI0
aI0
aI1
aI0
aI0
aa(lp631
F0.12140025306502385
aF0.028797975479809123
aF0.12140025306502385
aF0.12140025306502385
aF0.12140025306502385
aF0.12140025306502385
aF0.12140025306502385
aF0.12140025306502385
aF0.12140025306502385
aa(lp632
F0.025895606703145453
aI0
aF0.1623507322161424
aF0.1623507322161424
aF0.1623507322161424
aF0.1623507322161424
aF0.1623507322161424
aF0.1623507322161424
aI0
aa(lp633
I0
aI0
aF0.24524187090179797
aF0.24524187090179797
aF0.24524187090179797
aF0.019032516392808098
aF0.24524187090179797
aI0
aI0
aa(lp634
I0
aI0
aI0
aI0
aI0
aI1
aI0
aI0
aI0
aa(lp635
I0
aI0
aI0
aI1
aI0
aI0
aI0
aI0
aI0
aa(lp636
I0
aI0
aI0
aI0
aI0
aI0
aI0
aI0
aI1
aa(lp637
I0
aI0
aI1
aI0
aI0
aI0
aI0
aI0
aI0
aa(lp638
F0.12042111175049498
aF0.12042111175049498
aF0.12042111175049498
aF0.12042111175049498
aF0.12042111175049498
aF0.12042111175049498
aF0.12042111175049498
aF0.036631105996040074
aF0.12042111175049498
aa(lp639
F0.16049567192099326
aF0.16049567192099326
aF0.16049567192099326
aF0.16049567192099326
aF0.16049567192099326
aI0
aF0.0370259684740403
aI0
aF0.16049567192099326
aa(lp640
F0.2409365376538991
aF0.03625384938440364
aF0.2409365376538991
aI0
aF0.2409365376538991
aI0
aI0
aI0
aF0.2409365376538991
aa(lp641
F0.03172086065468016
aI0
aF0.48413956967265986
aI0
aF0.48413956967265986
aI0
aI0
aI0
aI0
aa(lp642
F0.041209994245545084
aF0.13697000082206498
aF0.13697000082206498
aF0.13697000082206498
aF0.13697000082206498
aF0.13697000082206498
aF0.13697000082206498
aF0.13697000082206498
aI0
aa(lp643
I0
aF0.19136060735605726
aF0.19136060735605726
aI0
aF0.19136060735605726
aF0.04319696321971368
aF0.19136060735605726
aF0.19136060735605726
aI0
aa(lp644
I0
aF0.045317311730504545
aF0.3182275627564985
aI0
aI0
aI0
aF0.3182275627564985
aF0.3182275627564985
aI0
aa(lp645
I0
aI0
aF0.9524187090179798
aI0
aI0
aI0
aI0
aF0.04758129098202024
aI0
aa(lp646
I0
aI0
aI0
aI0
aI0
aI0
aI0
aI0
aI1
aa(lp647
I0
aI0
aI0
aI1
aI0
aI0
aI0
aI0
aI0
aa(lp648
I0
aI0
aI0
aI0
aI1
aI0
aI0
aI0
aI0
aa(lp649
I0
aI0
aI0
aI0
aI0
aI0
aI1
aI0
aI0
aa(lp650
I0
aI0
aI1
aI0
aI0
aI0
aI0
aI0
aI0
aa(lp651
F0.032397722414785265
aF0.13822889679788783
aF0.13822889679788783
aF0.13822889679788783
aI0
aF0.13822889679788783
aF0.13822889679788783
aF0.13822889679788783
aF0.13822889679788783
aa(lp652
I0
aF0.19395769176926606
aF0.19395769176926606
aF0.19395769176926606
aI0
aF0.19395769176926606
aF0.030211541153669697
aI0
aF0.19395769176926606
aa(lp653
I0
aF0.3254031181696633
aF0.3254031181696633
aI0
aI0
aF0.3254031181696633
aI0
aI0
aF0.02379064549101012
aa(lp654
I0
aI0
aI0
aI0
aI1
aI0
aI0
aI0
aI0
aa(lp655
I0
aI0
aI0
aI0
aI0
aI0
aI0
aI1
aI0
aa(lp656
I0
aI0
aI0
aI1
aI0
aI0
aI0
aI0
aI0
aa(lp657
I0
aI0
aI0
aI0
aI0
aI1
aI0
aI0
aI0
aa(lp658
I0
aI0
aI0
aI0
aI0
aI0
aI0
aI0
aI1
aa(lp659
I1
aI0
aI0
aI0
aI0
aI0
aI0
aI0
aI0
aa(lp660
I0
aI0
aI0
aI0
aI0
aI0
aI0
aI1
aI0
aa(lp661
I0
aI0
aI0
aI0
aI0
aI0
aI1
aI0
aI0
aa(lp662
F0.12042111175049498
aF0.036631105996040074
aF0.12042111175049498
aF0.12042111175049498
aF0.12042111175049498
aF0.12042111175049498
aF0.12042111175049498
aF0.12042111175049498
aF0.12042111175049498
aa(lp663
F0.16049567192099326
aI0
aF0.16049567192099326
aF0.0370259684740403
aF0.16049567192099326
aF0.16049567192099326
aF0.16049567192099326
aF0.16049567192099326
aI0
aa(lp664
I0
aI0
aF0.03625384938440364
aI0
aF0.2409365376538991
aF0.2409365376538991
aF0.2409365376538991
aF0.2409365376538991
aI0
aa(lp665
I0
aI0
aI0
aI0
aF0.03172086065468016
aF0.48413956967265986
aF0.48413956967265986
aI0
aI0
aa(lp666
F0.13697000082206498
aF0.13697000082206498
aF0.13697000082206498
aF0.13697000082206498
aF0.041209994245545084
aF0.13697000082206498
aI0
aF0.13697000082206498
aF0.13697000082206498
aa(lp667
F0.19136060735605726
aF0.19136060735605726
aF0.19136060735605726
aF0.19136060735605726
aI0
aI0
aI0
aF0.19136060735605726
aF0.04319696321971368
aa(lp668
I0
aF0.045317311730504545
aF0.3182275627564985
aF0.3182275627564985
aI0
aI0
aI0
aF0.3182275627564985
aI0
aa(lp669
I0
aI0
aF0.04758129098202024
aF0.9524187090179798
aI0
aI0
aI0
aI0
aI0
aa(lp670
I0
aI0
aI0
aI0
aI0
aI0
aI1
aI0
aI0
aa(lp671
I0
aI0
aI0
aI0
aI0
aI1
aI0
aI0
aI0
aa(lp672
I1
aI0
aI0
aI0
aI0
aI0
aI0
aI0
aI0
aa(lp673
I0
aI0
aI0
aI0
aI0
aI0
aI0
aI1
aI0
aa(lp674
I0
aI0
aI0
aI1
aI0
aI0
aI0
aI0
aI0
aa(lp675
F0.13822889679788783
aF0.032397722414785265
aF0.13822889679788783
aI0
aF0.13822889679788783
aF0.13822889679788783
aF0.13822889679788783
aF0.13822889679788783
aF0.13822889679788783
aa(lp676
F0.19395769176926606
aI0
aF0.030211541153669697
aI0
aF0.19395769176926606
aF0.19395769176926606
aF0.19395769176926606
aF0.19395769176926606
aI0
aa(lp677
I0
aI0
aI0
aI0
aF0.3254031181696633
aF0.3254031181696633
aF0.3254031181696633
aF0.02379064549101012
aI0
aa(lp678
I0
aI0
aI0
aI1
aI0
aI0
aI0
aI0
aI0
aa(lp679
I0
aI0
aI0
aI0
aI0
aI0
aI0
aI0
aI1
aa(lp680
I1
aI0
aI0
aI0
aI0
aI0
aI0
aI0
aI0
aa(lp681
I0
aI0
aI0
aI0
aI0
aI0
aI1
aI0
aI0
aa(lp682
I0
aF0.13822889679788783
aF0.13822889679788783
aF0.032397722414785265
aF0.13822889679788783
aF0.13822889679788783
aF0.13822889679788783
aF0.13822889679788783
aF0.13822889679788783
aa(lp683
I0
aI0
aF0.19395769176926606
aI0
aF0.19395769176926606
aF0.19395769176926606
aF0.030211541153669697
aF0.19395769176926606
aF0.19395769176926606
aa(lp684
I0
aI0
aF0.02379064549101012
aI0
aI0
aF0.3254031181696633
aI0
aF0.3254031181696633
aF0.3254031181696633
aa(lp685
I1
aI0
aI0
aI0
aI0
aI0
aI0
aI0
aI0
aa(lp686
I0
aI1
aI0
aI0
aI0
aI0
aI0
aI0
aI0
aa(lp687
I0
aI0
aI0
aI0
aI1
aI0
aI0
aI0
aI0
aa(lp688
I0
aI0
aI0
aI0
aI0
aI0
aI0
aI0
aI1
aa(lp689
F0.13697000082206498
aF0.13697000082206498
aF0.13697000082206498
aF0.13697000082206498
aF0.13697000082206498
aF0.13697000082206498
aF0.13697000082206498
aI0
aF0.041209994245545084
aa(lp690
F0.19136060735605726
aF0.19136060735605726
aI0
aF0.19136060735605726
aF0.19136060735605726
aF0.04319696321971368
aF0.19136060735605726
aI0
aI0
aa(lp691
F0.045317311730504545
aF0.3182275627564985
aI0
aF0.3182275627564985
aF0.3182275627564985
aI0
aI0
aI0
aI0
aa(lp692
I0
aI0
aI0
aF0.04758129098202024
aF0.9524187090179798
aI0
aI0
aI0
aI0
aa(lp693
I0
aI0
aI0
aI0
aI0
aI0
aI0
aI1
aI0
aa(lp694
I0
aI0
aI1
aI0
aI0
aI0
aI0
aI0
aI0
aa(lp695
I0
aI0
aI0
aI0
aI0
aI0
aI1
aI0
aI0
aa(lp696
I0
aI1
aI0
aI0
aI0
aI0
aI0
aI0
aI0
aa(lp697
I0
aI0
aI0
aI0
aI1
aI0
aI0
aI0
aI0
aa(lp698
F0.13697000082206498
aF0.13697000082206498
aF0.13697000082206498
aF0.041209994245545084
aF0.13697000082206498
aF0.13697000082206498
aF0.13697000082206498
aF0.13697000082206498
aI0
aa(lp699
F0.19136060735605726
aI0
aF0.19136060735605726
aI0
aF0.19136060735605726
aF0.19136060735605726
aF0.19136060735605726
aF0.04319696321971368
aI0
aa(lp700
F0.3182275627564985
aI0
aF0.3182275627564985
aI0
aI0
aF0.045317311730504545
aF0.3182275627564985
aI0
aI0
aa(lp701
F0.04758129098202024
aI0
aF0.9524187090179798
aI0
aI0
aI0
aI0
aI0
aI0
aa(lp702
I0
aI0
aI0
aI0
aI0
aI0
aI0
aI0
aI1
aa(lp703
I0
aI1
aI0
aI0
aI0
aI0
aI0
aI0
aI0
aa(lp704
I0
aI0
aI0
aI0
aI1
aI0
aI0
aI0
aI0
aa(lp705
I0
aI0
aI0
aI0
aI0
aI0
aI1
aI0
aI0
aa(lp706
I0
aI0
aI1
aI0
aI0
aI0
aI0
aI0
aI0
aa(lp707
I0
aI0
aI0
aI0
aI1
aI0
aI0
aI0
aI0
aa(lp708
I1
aI0
aI0
aI0
aI0
aI0
aI0
aI0
aI0
aa(lp709
I0
aI0
aI0
aI1
aI0
aI0
aI0
aI0
aI0
aa(lp710
I0
aI0
aI0
aI0
aI0
aI1
aI0
aI0
aI0
aa(lp711
F0.12042111175049498
aF0.12042111175049498
aF0.036631105996040074
aF0.12042111175049498
aF0.12042111175049498
aF0.12042111175049498
aF0.12042111175049498
aF0.12042111175049498
aF0.12042111175049498
aa(lp712
F0.16049567192099326
aF0.0370259684740403
aI0
aF0.16049567192099326
aI0
aF0.16049567192099326
aF0.16049567192099326
aF0.16049567192099326
aF0.16049567192099326
aa(lp713
I0
aI0
aI0
aF0.2409365376538991
aI0
aF0.2409365376538991
aF0.03625384938440364
aF0.2409365376538991
aF0.2409365376538991
aa(lp714
I0
aI0
aI0
aI0
aI0
aF0.48413956967265986
aI0
aF0.48413956967265986
aF0.03172086065468016
aa(lp715
F0.13697000082206498
aF0.13697000082206498
aF0.13697000082206498
aF0.13697000082206498
aF0.13697000082206498
aF0.041209994245545084
aI0
aF0.13697000082206498
aF0.13697000082206498
aa(lp716
F0.19136060735605726
aF0.19136060735605726
aF0.04319696321971368
aI0
aF0.19136060735605726
aI0
aI0
aF0.19136060735605726
aF0.19136060735605726
aa(lp717
F0.045317311730504545
aF0.3182275627564985
aI0
aI0
aF0.3182275627564985
aI0
aI0
aF0.3182275627564985
aI0
aa(lp718
I0
aF0.9524187090179798
aI0
aI0
aI0
aI0
aI0
aF0.04758129098202024
aI0
aa(lp719
F0.11953514805156436
aF0.11953514805156436
aF0.11953514805156436
aF0.11953514805156436
aF0.11953514805156436
aF0.11953514805156436
aF0.04371881558748517
aF0.11953514805156436
aF0.11953514805156436
aa(lp720
F0.15881714395322952
aF0.15881714395322952
aF0.15881714395322952
aF0.04709713628062295
aF0.15881714395322952
aI0
aI0
aF0.15881714395322952
aF0.15881714395322952
aa(lp721
F0.23704091103408592
aF0.23704091103408592
aI0
aI0
aF0.23704091103408592
aI0
aI0
aF0.23704091103408592
aF0.051836355863656425
aa(lp722
I0
aF0.46978845884633025
aI0
aI0
aF0.06042308230733939
aI0
aI0
aF0.46978845884633025
aI0
aa(lp723
I0
aF0.09516258196404048
aI0
aI0
aI0
aI0
aI0
aI0
aI0
aa(lp724
F0.1396201920192497
aF0.1396201920192497
aF0.022658655865252272
aF0.1396201920192497
aF0.1396201920192497
aF0.1396201920192497
aI0
aF0.1396201920192497
aF0.1396201920192497
aa(lp725
F0.19682791393453197
aF0.19682791393453197
aI0
aI0
aF0.19682791393453197
aF0.19682791393453197
aI0
aF0.19682791393453197
aF0.01586043032734008
aa(lp726
I0
aI0
aI0
aI0
aI0
aI0
aI1
aI0
aI0
aa(lp727
I0
aI0
aI0
aI1
aI0
aI0
aI0
aI0
aI0
aa(lp728
I1
aI0
aI0
aI0
aI0
aI0
aI0
aI0
aI0
aa(lp729
F0.13822889679788783
aF0.13822889679788783
aF0.13822889679788783
aF0.032397722414785265
aF0.13822889679788783
aF0.13822889679788783
aI0
aF0.13822889679788783
aF0.13822889679788783
aa(lp730
F0.19395769176926606
aF0.19395769176926606
aF0.19395769176926606
aI0
aF0.19395769176926606
aF0.030211541153669697
aI0
aF0.19395769176926606
aI0
aa(lp731
F0.3254031181696633
aF0.3254031181696633
aF0.02379064549101012
aI0
aI0
aI0
aI0
aF0.3254031181696633
aI0
aa(lp732
I0
aI0
aI0
aI0
aI0
aI0
aI1
aI0
aI0
aa(lp733
I0
aI0
aI0
aI0
aI0
aI0
aI0
aI0
aI1
aa(lp734
I0
aI0
aI0
aI0
aI1
aI0
aI0
aI0
aI0
aa(lp735
I0
aI0
aI0
aI0
aI0
aI0
aI0
aI1
aI0
aa(lp736
I0
aI0
aI0
aI0
aI1
aI0
aI0
aI0
aI0
aa(lp737
I0
aI0
aI0
aI1
aI0
aI0
aI0
aI0
aI0
aa(lp738
I0
aI0
aI1
aI0
aI0
aI0
aI0
aI0
aI0
aa(lp739
I0
aI0
aI0
aI0
aI0
aI0
aI1
aI0
aI0
aa(lp740
F0.036631105996040074
aF0.12042111175049498
aF0.12042111175049498
aF0.12042111175049498
aF0.12042111175049498
aF0.12042111175049498
aF0.12042111175049498
aF0.12042111175049498
aF0.12042111175049498
aa(lp741
I0
aF0.16049567192099326
aF0.16049567192099326
aF0.16049567192099326
aI0
aF0.0370259684740403
aF0.16049567192099326
aF0.16049567192099326
aF0.16049567192099326
aa(lp742
I0
aF0.2409365376538991
aF0.2409365376538991
aI0
aI0
aI0
aF0.2409365376538991
aF0.2409365376538991
aF0.03625384938440364
aa(lp743
I0
aF0.03172086065468016
aI0
aI0
aI0
aI0
aF0.48413956967265986
aF0.48413956967265986
aI0
aa(lp744
F0.13822889679788783
aF0.13822889679788783
aF0.13822889679788783
aF0.13822889679788783
aF0.13822889679788783
aI0
aF0.13822889679788783
aF0.032397722414785265
aF0.13822889679788783
aa(lp745
F0.030211541153669697
aF0.19395769176926606
aF0.19395769176926606
aI0
aF0.19395769176926606
aI0
aF0.19395769176926606
aI0
aF0.19395769176926606
aa(lp746
I0
aF0.3254031181696633
aF0.3254031181696633
aI0
aF0.3254031181696633
aI0
aI0
aI0
aF0.02379064549101012
aa(lp747
I0
aI0
aI0
aI0
aI0
aI1
aI0
aI0
aI0
aa(lp748
I0
aI0
aI0
aI1
aI0
aI0
aI0
aI0
aI0
aa(lp749
I0
aI0
aI0
aI0
aI0
aI0
aI1
aI0
aI0
aa(lp750
I0
aI0
aI0
aI0
aI1
aI0
aI0
aI0
aI0
aa(lp751
I0
aI0
aI0
aI0
aI0
aI0
aI0
aI0
aI1
aa(lp752
I1
aI0
aI0
aI0
aI0
aI0
aI0
aI0
aI0
aa(lp753
I0
aI0
aI0
aI0
aI1
aI0
aI0
aI0
aI0
aa(lp754
F0.12140025306502385
aF0.12140025306502385
aF0.028797975479809123
aF0.12140025306502385
aF0.12140025306502385
aF0.12140025306502385
aF0.12140025306502385
aF0.12140025306502385
aF0.12140025306502385
aa(lp755
F0.1623507322161424
aF0.1623507322161424
aI0
aF0.1623507322161424
aF0.1623507322161424
aF0.025895606703145453
aF0.1623507322161424
aF0.1623507322161424
aI0
aa(lp756
I0
aF0.24524187090179797
aI0
aF0.24524187090179797
aF0.24524187090179797
aI0
aF0.24524187090179797
aF0.019032516392808098
aI0
aa(lp757
F0.1396201920192497
aF0.1396201920192497
aF0.1396201920192497
aF0.022658655865252272
aI0
aF0.1396201920192497
aF0.1396201920192497
aF0.1396201920192497
aF0.1396201920192497
aa(lp758
F0.19682791393453197
aF0.19682791393453197
aI0
aI0
aI0
aF0.01586043032734008
aF0.19682791393453197
aF0.19682791393453197
aF0.19682791393453197
aa(lp759
I0
aI0
aI0
aI0
aI1
aI0
aI0
aI0
aI0
aa(lp760
I0
aI0
aI1
aI0
aI0
aI0
aI0
aI0
aI0
aa(lp761
I0
aI0
aI0
aI0
aI0
aI0
aI1
aI0
aI0
aa(lp762
F0.1396201920192497
aF0.1396201920192497
aF0.1396201920192497
aF0.1396201920192497
aF0.1396201920192497
aF0.022658655865252272
aI0
aF0.1396201920192497
aF0.1396201920192497
aa(lp763
F0.19682791393453197
aF0.19682791393453197
aI0
aF0.19682791393453197
aF0.19682791393453197
aI0
aI0
aF0.01586043032734008
aF0.19682791393453197
aa(lp764
I0
aI0
aI0
aI0
aI0
aI0
aI1
aI0
aI0
aa(lp765
I0
aI0
aI1
aI0
aI0
aI0
aI0
aI0
aI0
aa(lp766
I0
aI0
aI0
aI0
aI1
aI0
aI0
aI0
aI0
aa(lp767
F0.13822889679788783
aI0
aF0.13822889679788783
aF0.13822889679788783
aF0.13822889679788783
aF0.13822889679788783
aF0.13822889679788783
aF0.13822889679788783
aF0.032397722414785265
aa(lp768
I0
aI0
aF0.19395769176926606
aF0.030211541153669697
aF0.19395769176926606
aF0.19395769176926606
aF0.19395769176926606
aF0.19395769176926606
aI0
aa(lp769
I0
aI0
aF0.3254031181696633
aI0
aF0.3254031181696633
aF0.02379064549101012
aI0
aF0.3254031181696633
aI0
aa(lp770
I0
aI1
aI0
aI0
aI0
aI0
aI0
aI0
aI0
aa(lp771
I1
aI0
aI0
aI0
aI0
aI0
aI0
aI0
aI0
aa(lp772
I0
aI0
aI0
aI0
aI0
aI0
aI1
aI0
aI0
aa(lp773
I0
aI0
aI1
aI0
aI0
aI0
aI0
aI0
aI0
aa(lp774
I0
aI0
aI0
aI0
aI0
aI1
aI0
aI0
aI0
aa(lp775
I0
aI0
aI0
aI0
aI0
aI0
aI0
aI0
aI1
aa(lp776
I0
aI0
aI1
aI0
aI0
aI0
aI0
aI0
aI0
aa(lp777
F0.12140025306502385
aF0.12140025306502385
aF0.12140025306502385
aF0.12140025306502385
aF0.12140025306502385
aF0.12140025306502385
aF0.028797975479809123
aF0.12140025306502385
aF0.12140025306502385
aa(lp778
F0.1623507322161424
aF0.1623507322161424
aF0.1623507322161424
aF0.1623507322161424
aF0.025895606703145453
aI0
aI0
aF0.1623507322161424
aF0.1623507322161424
aa(lp779
F0.24524187090179797
aF0.019032516392808098
aF0.24524187090179797
aF0.24524187090179797
aI0
aI0
aI0
aF0.24524187090179797
aI0
aa(lp780
I0
aI0
aI1
aI0
aI0
aI0
aI0
aI0
aI0
aa(lp781
I0
aI0
aI0
aI0
aI1
aI0
aI0
aI0
aI0
aa(lp782
I0
aI0
aI0
aI0
aI0
aI0
aI1
aI0
aI0
aa(lp783
F0.12140025306502385
aF0.12140025306502385
aF0.12140025306502385
aF0.12140025306502385
aF0.12140025306502385
aF0.12140025306502385
aF0.12140025306502385
aF0.12140025306502385
aF0.028797975479809123
aa(lp784
F0.025895606703145453
aF0.1623507322161424
aI0
aF0.1623507322161424
aF0.1623507322161424
aF0.1623507322161424
aF0.1623507322161424
aF0.1623507322161424
aI0
aa(lp785
I0
aF0.24524187090179797
aI0
aF0.24524187090179797
aI0
aF0.019032516392808098
aF0.24524187090179797
aF0.24524187090179797
aI0
aa(lp786
F0.13697000082206498
aF0.13697000082206498
aF0.13697000082206498
aF0.13697000082206498
aF0.13697000082206498
aF0.13697000082206498
aF0.13697000082206498
aI0
aF0.041209994245545084
aa(lp787
I0
aF0.19136060735605726
aF0.19136060735605726
aF0.04319696321971368
aF0.19136060735605726
aF0.19136060735605726
aF0.19136060735605726
aI0
aI0
aa(lp788
I0
aI0
aF0.3182275627564985
aI0
aF0.045317311730504545
aF0.3182275627564985
aF0.3182275627564985
aI0
aI0
aa(lp789
I0
aI0
aF0.04758129098202024
aI0
aI0
aI0
aF0.9524187090179798
aI0
aI0
aa(lp790
F0.11953514805156436
aF0.11953514805156436
aF0.11953514805156436
aF0.11953514805156436
aF0.11953514805156436
aF0.11953514805156436
aF0.11953514805156436
aF0.04371881558748517
aF0.11953514805156436
aa(lp791
F0.04709713628062295
aF0.15881714395322952
aF0.15881714395322952
aF0.15881714395322952
aF0.15881714395322952
aF0.15881714395322952
aF0.15881714395322952
aI0
aI0
aa(lp792
I0
aF0.051836355863656425
aF0.23704091103408592
aI0
aF0.23704091103408592
aF0.23704091103408592
aF0.23704091103408592
aI0
aI0
aa(lp793
I0
aI0
aF0.46978845884633025
aI0
aI0
aF0.06042308230733939
aF0.46978845884633025
aI0
aI0
aa(lp794
I0
aI0
aI0
aI0
aI0
aI0
aF0.09516258196404048
aI0
aI0
aa(lp795
I0
aI0
aI0
aI0
aI0
aI0
aI0
aI0
aI1
aa(lp796
I0
aI0
aI1
aI0
aI0
aI0
aI0
aI0
aI0
aa(lp797
I0
aI1
aI0
aI0
aI0
aI0
aI0
aI0
aI0
aa(lp798
I0
aI0
aI0
aI0
aI0
aI1
aI0
aI0
aI0
aa(lp799
F0.12042111175049498
aF0.12042111175049498
aF0.12042111175049498
aF0.12042111175049498
aF0.036631105996040074
aF0.12042111175049498
aF0.12042111175049498
aF0.12042111175049498
aF0.12042111175049498
aa(lp800
F0.16049567192099326
aF0.16049567192099326
aF0.16049567192099326
aF0.16049567192099326
aI0
aF0.16049567192099326
aF0.16049567192099326
aF0.0370259684740403
aI0
aa(lp801
F0.2409365376538991
aF0.2409365376538991
aI0
aF0.2409365376538991
aI0
aF0.2409365376538991
aF0.03625384938440364
aI0
aI0
aa(lp802
F0.48413956967265986
aI0
aI0
aF0.03172086065468016
aI0
aF0.48413956967265986
aI0
aI0
aI0
aa(lp803
F0.1396201920192497
aF0.022658655865252272
aI0
aF0.1396201920192497
aF0.1396201920192497
aF0.1396201920192497
aF0.1396201920192497
aF0.1396201920192497
aF0.1396201920192497
aa(lp804
F0.19682791393453197
aI0
aI0
aF0.19682791393453197
aF0.19682791393453197
aF0.19682791393453197
aF0.19682791393453197
aF0.01586043032734008
aI0
aa(lp805
I0
aI0
aI1
aI0
aI0
aI0
aI0
aI0
aI0
aa(lp806
I0
aI0
aI0
aI0
aI0
aI0
aI0
aI0
aI1
aa(lp807
I0
aI0
aI0
aI0
aI0
aI1
aI0
aI0
aI0
aa(lp808
I0
aI0
aI0
aI0
aI1
aI0
aI0
aI0
aI0
aa(lp809
I0
aI0
aI0
aI1
aI0
aI0
aI0
aI0
aI0
aa(lp810
I1
aI0
aI0
aI0
aI0
aI0
aI0
aI0
aI0
aa(lp811
I0
aI0
aI0
aI0
aI0
aI0
aI0
aI0
aI1
aa(lp812
F0.12042111175049498
aF0.12042111175049498
aF0.036631105996040074
aF0.12042111175049498
aF0.12042111175049498
aF0.12042111175049498
aF0.12042111175049498
aF0.12042111175049498
aF0.12042111175049498
aa(lp813
F0.16049567192099326
aF0.16049567192099326
aI0
aF0.16049567192099326
aI0
aF0.16049567192099326
aF0.0370259684740403
aF0.16049567192099326
aF0.16049567192099326
aa(lp814
F0.2409365376538991
aF0.2409365376538991
aI0
aI0
aI0
aF0.2409365376538991
aI0
aF0.03625384938440364
aF0.2409365376538991
aa(lp815
I0
aF0.03172086065468016
aI0
aI0
aI0
aF0.48413956967265986
aI0
aI0
aF0.48413956967265986
aa(lp816
I0
aI0
aI0
aI0
aI0
aI0
aI0
aI0
aI1
aa(lp817
I0
aI0
aI0
aI0
aI0
aI0
aI1
aI0
aI0
aa(lp818
I0
aI0
aI0
aI0
aI0
aI0
aI0
aI1
aI0
aa(lp819
F0.12140025306502385
aF0.12140025306502385
aF0.028797975479809123
aF0.12140025306502385
aF0.12140025306502385
aF0.12140025306502385
aF0.12140025306502385
aF0.12140025306502385
aF0.12140025306502385
aa(lp820
F0.1623507322161424
aF0.1623507322161424
aI0
aF0.1623507322161424
aF0.1623507322161424
aF0.025895606703145453
aF0.1623507322161424
aF0.1623507322161424
aI0
aa(lp821
F0.24524187090179797
aF0.24524187090179797
aI0
aF0.019032516392808098
aF0.24524187090179797
aI0
aI0
aF0.24524187090179797
aI0
aa(lp822
F0.13697000082206498
aF0.13697000082206498
aF0.041209994245545084
aF0.13697000082206498
aF0.13697000082206498
aF0.13697000082206498
aF0.13697000082206498
aI0
aF0.13697000082206498
aa(lp823
F0.19136060735605726
aF0.19136060735605726
aI0
aF0.19136060735605726
aF0.19136060735605726
aF0.04319696321971368
aI0
aI0
aF0.19136060735605726
aa(lp824
F0.045317311730504545
aF0.3182275627564985
aI0
aI0
aF0.3182275627564985
aI0
aI0
aI0
aF0.3182275627564985
aa(lp825
I0
aI0
aI0
aI0
aF0.04758129098202024
aI0
aI0
aI0
aF0.9524187090179798
aa(lp826
I0
aI0
aI0
aI0
aI0
aI0
aI0
aI1
aI0
aa(lp827
I0
aI0
aI0
aI0
aI0
aI0
aI1
aI0
aI0
aa(lp828
I0
aI0
aI0
aI1
aI0
aI0
aI0
aI0
aI0
aa(lp829
I0
aI1
aI0
aI0
aI0
aI0
aI0
aI0
aI0
aa(lp830
I0
aI0
aI0
aI0
aI0
aI0
aI0
aI0
aI1
aa(lp831
I0
aI0
aI0
aI0
aI0
aI0
aI0
aI0
aI1
aa(lp832
I0
aI0
aI0
aI1
aI0
aI0
aI0
aI0
aI0
aa(lp833
I0
aI0
aI0
aI0
aI1
aI0
aI0
aI0
aI0
aa(lp834
I1
aI0
aI0
aI0
aI0
aI0
aI0
aI0
aI0
aa(lp835
F0.12042111175049498
aF0.12042111175049498
aF0.12042111175049498
aF0.12042111175049498
aF0.12042111175049498
aF0.12042111175049498
aF0.12042111175049498
aF0.036631105996040074
aF0.12042111175049498
aa(lp836
F0.16049567192099326
aF0.16049567192099326
aF0.16049567192099326
aF0.16049567192099326
aF0.16049567192099326
aF0.16049567192099326
aF0.0370259684740403
aI0
aI0
aa(lp837
F0.2409365376538991
aF0.2409365376538991
aF0.03625384938440364
aI0
aF0.2409365376538991
aF0.2409365376538991
aI0
aI0
aI0
aa(lp838
F0.48413956967265986
aF0.03172086065468016
aI0
aI0
aI0
aF0.48413956967265986
aI0
aI0
aI0
aa(lp839
F0.13697000082206498
aF0.13697000082206498
aF0.13697000082206498
aF0.041209994245545084
aF0.13697000082206498
aF0.13697000082206498
aF0.13697000082206498
aI0
aF0.13697000082206498
aa(lp840
F0.19136060735605726
aF0.19136060735605726
aI0
aI0
aF0.04319696321971368
aF0.19136060735605726
aF0.19136060735605726
aI0
aF0.19136060735605726
aa(lp841
F0.3182275627564985
aF0.045317311730504545
aI0
aI0
aI0
aF0.3182275627564985
aI0
aI0
aF0.3182275627564985
aa(lp842
F0.04758129098202024
aI0
aI0
aI0
aI0
aI0
aI0
aI0
aF0.9524187090179798
aa(lp843
I0
aI0
aI0
aI0
aI0
aI0
aI0
aI1
aI0
aa(lp844
I0
aI0
aI1
aI0
aI0
aI0
aI0
aI0
aI0
aa(lp845
I0
aI0
aI0
aI0
aI0
aI0
aI1
aI0
aI0
aa(lp846
I0
aI0
aI0
aI0
aI0
aI1
aI0
aI0
aI0
aa(lp847
I0
aI0
aI0
aI0
aI0
aI0
aI0
aI0
aI1
aa(lp848
F0.1396201920192497
aF0.1396201920192497
aF0.1396201920192497
aF0.1396201920192497
aF0.1396201920192497
aF0.1396201920192497
aF0.1396201920192497
aI0
aF0.022658655865252272
aa(lp849
F0.19682791393453197
aI0
aF0.19682791393453197
aF0.01586043032734008
aF0.19682791393453197
aF0.19682791393453197
aF0.19682791393453197
aI0
aI0
aa(lp850
I0
aI0
aI0
aI0
aI0
aI0
aI0
aI1
aI0
aa(lp851
I0
aI1
aI0
aI0
aI0
aI0
aI0
aI0
aI0
aa(lp852
I0
aI0
aI0
aI0
aI1
aI0
aI0
aI0
aI0
aa(lp853
F0.041209994245545084
aF0.13697000082206498
aF0.13697000082206498
aF0.13697000082206498
aI0
aF0.13697000082206498
aF0.13697000082206498
aF0.13697000082206498
aF0.13697000082206498
aa(lp854
I0
aF0.04319696321971368
aF0.19136060735605726
aF0.19136060735605726
aI0
aF0.19136060735605726
aF0.19136060735605726
aI0
aF0.19136060735605726
aa(lp855
I0
aI0
aF0.3182275627564985
aF0.045317311730504545
aI0
aI0
aF0.3182275627564985
aI0
aF0.3182275627564985
aa(lp856
I0
aI0
aI0
aI0
aI0
aI0
aF0.9524187090179798
aI0
aF0.04758129098202024
aa(lp857
I0
aI0
aI0
aI0
aI1
aI0
aI0
aI0
aI0
aa(lp858
I0
aI0
aI0
aI0
aI0
aI0
aI0
aI1
aI0
aa(lp859
I0
aI0
aI0
aI0
aI0
aI1
aI0
aI0
aI0
aa(lp860
I0
aI0
aI1
aI0
aI0
aI0
aI0
aI0
aI0
aa(lp861
I0
aI0
aI0
aI0
aI0
aI0
aI1
aI0
aI0
aa(lp862
F0.13697000082206498
aI0
aF0.041209994245545084
aF0.13697000082206498
aF0.13697000082206498
aF0.13697000082206498
aF0.13697000082206498
aF0.13697000082206498
aF0.13697000082206498
aa(lp863
F0.04319696321971368
aI0
aI0
aF0.19136060735605726
aI0
aF0.19136060735605726
aF0.19136060735605726
aF0.19136060735605726
aF0.19136060735605726
aa(lp864
I0
aI0
aI0
aF0.3182275627564985
aI0
aI0
aF0.3182275627564985
aF0.045317311730504545
aF0.3182275627564985
aa(lp865
I0
aI0
aI0
aF0.04758129098202024
aI0
aI0
aI0
aI0
aF0.9524187090179798
aa(lp866
F0.11953514805156436
aF0.04371881558748517
aF0.11953514805156436
aF0.11953514805156436
aF0.11953514805156436
aF0.11953514805156436
aF0.11953514805156436
aF0.11953514805156436
aF0.11953514805156436
aa(lp867
F0.15881714395322952
aI0
aI0
aF0.15881714395322952
aF0.04709713628062295
aF0.15881714395322952
aF0.15881714395322952
aF0.15881714395322952
aF0.15881714395322952
aa(lp868
I0
aI0
aI0
aF0.23704091103408592
aI0
aF0.051836355863656425
aF0.23704091103408592
aF0.23704091103408592
aF0.23704091103408592
aa(lp869
I0
aI0
aI0
aF0.46978845884633025
aI0
aI0
aF0.06042308230733939
aI0
aF0.46978845884633025
aa(lp870
I0
aI0
aI0
aI0
aI0
aI0
aI0
aI0
aF0.09516258196404048
aa(lp871
F0.13822889679788783
aF0.032397722414785265
aF0.13822889679788783
aF0.13822889679788783
aI0
aF0.13822889679788783
aF0.13822889679788783
aF0.13822889679788783
aF0.13822889679788783
aa(lp872
F0.19395769176926606
aI0
aI0
aF0.19395769176926606
aI0
aF0.030211541153669697
aF0.19395769176926606
aF0.19395769176926606
aF0.19395769176926606
aa(lp873
I0
aI0
aI0
aF0.02379064549101012
aI0
aI0
aF0.3254031181696633
aF0.3254031181696633
aF0.3254031181696633
aa(lp874
I0
aI0
aI0
aI0
aI1
aI0
aI0
aI0
aI0
aa(lp875
I0
aI0
aI1
aI0
aI0
aI0
aI0
aI0
aI0
aa(lp876
I1
aI0
aI0
aI0
aI0
aI0
aI0
aI0
aI0
aa(lp877
I0
aI0
aI0
aI0
aI0
aI0
aI1
aI0
aI0
aa(lp878
I1
aI0
aI0
aI0
aI0
aI0
aI0
aI0
aI0
aa(lp879
I0
aI0
aI0
aI0
aI0
aI0
aI0
aI1
aI0
aa(lp880
I0
aI0
aI0
aI0
aI0
aI0
aI1
aI0
aI0
aa(lp881
I0
aI0
aI0
aI0
aI0
aI0
aI0
aI0
aI1
aa(lp882
F0.12042111175049498
aF0.036631105996040074
aF0.12042111175049498
aF0.12042111175049498
aF0.12042111175049498
aF0.12042111175049498
aF0.12042111175049498
aF0.12042111175049498
aF0.12042111175049498
aa(lp883
I0
aI0
aF0.16049567192099326
aF0.0370259684740403
aF0.16049567192099326
aF0.16049567192099326
aF0.16049567192099326
aF0.16049567192099326
aF0.16049567192099326
aa(lp884
I0
aI0
aF0.2409365376538991
aI0
aF0.2409365376538991
aF0.03625384938440364
aF0.2409365376538991
aI0
aF0.2409365376538991
aa(lp885
I0
aI0
aF0.03172086065468016
aI0
aF0.48413956967265986
aI0
aI0
aI0
aF0.48413956967265986
aa(lp886
F0.041209994245545084
aF0.13697000082206498
aF0.13697000082206498
aI0
aF0.13697000082206498
aF0.13697000082206498
aF0.13697000082206498
aF0.13697000082206498
aF0.13697000082206498
aa(lp887
I0
aF0.19136060735605726
aF0.19136060735605726
aI0
aI0
aF0.04319696321971368
aF0.19136060735605726
aF0.19136060735605726
aF0.19136060735605726
aa(lp888
I0
aF0.3182275627564985
aF0.3182275627564985
aI0
aI0
aI0
aF0.3182275627564985
aF0.045317311730504545
aI0
aa(lp889
I0
aF0.04758129098202024
aF0.9524187090179798
aI0
aI0
aI0
aI0
aI0
aI0
aa(lp890
I0
aI0
aI0
aI1
aI0
aI0
aI0
aI0
aI0
aa(lp891
I0
aI0
aI0
aI0
aI1
aI0
aI0
aI0
aI0
aa(lp892
I0
aI0
aI0
aI0
aI0
aI0
aI0
aI0
aI1
aa(lp893
I0
aI0
aI0
aI0
aI0
aI0
aI1
aI0
aI0
aa(lp894
I0
aI0
aI1
aI0
aI0
aI0
aI0
aI0
aI0
aa(lp895
F0.1396201920192497
aF0.1396201920192497
aF0.1396201920192497
aF0.1396201920192497
aF0.1396201920192497
aF0.1396201920192497
aI0
aF0.1396201920192497
aF0.022658655865252272
aa(lp896
F0.19682791393453197
aF0.19682791393453197
aI0
aF0.01586043032734008
aF0.19682791393453197
aF0.19682791393453197
aI0
aF0.19682791393453197
aI0
aa(lp897
I0
aI0
aI0
aI0
aI0
aI0
aI1
aI0
aI0
aa(lp898
I0
aI0
aI1
aI0
aI0
aI0
aI0
aI0
aI0
aa(lp899
I0
aI0
aI0
aI0
aI1
aI0
aI0
aI0
aI0
aa(lp900
F0.13697000082206498
aF0.13697000082206498
aF0.13697000082206498
aF0.13697000082206498
aF0.13697000082206498
aI0
aF0.13697000082206498
aF0.13697000082206498
aF0.041209994245545084
aa(lp901
F0.19136060735605726
aF0.19136060735605726
aF0.19136060735605726
aF0.19136060735605726
aF0.04319696321971368
aI0
aF0.19136060735605726
aI0
aI0
aa(lp902
F0.3182275627564985
aF0.3182275627564985
aF0.3182275627564985
aF0.045317311730504545
aI0
aI0
aI0
aI0
aI0
aa(lp903
I0
aF0.9524187090179798
aF0.04758129098202024
aI0
aI0
aI0
aI0
aI0
aI0
aa(lp904
F0.11953514805156436
aF0.11953514805156436
aF0.11953514805156436
aF0.11953514805156436
aF0.11953514805156436
aF0.04371881558748517
aF0.11953514805156436
aF0.11953514805156436
aF0.11953514805156436
aa(lp905
F0.15881714395322952
aF0.15881714395322952
aF0.15881714395322952
aF0.15881714395322952
aF0.15881714395322952
aI0
aF0.15881714395322952
aF0.04709713628062295
aI0
aa(lp906
F0.23704091103408592
aF0.23704091103408592
aF0.23704091103408592
aF0.23704091103408592
aI0
aI0
aF0.051836355863656425
aI0
aI0
aa(lp907
F0.06042308230733939
aF0.46978845884633025
aF0.46978845884633025
aI0
aI0
aI0
aI0
aI0
aI0
aa(lp908
I0
aF0.09516258196404048
aI0
aI0
aI0
aI0
aI0
aI0
aI0
aa(lp909
F0.13697000082206498
aI0
aF0.13697000082206498
aF0.13697000082206498
aF0.13697000082206498
aF0.041209994245545084
aF0.13697000082206498
aF0.13697000082206498
aF0.13697000082206498
aa(lp910
F0.19136060735605726
aI0
aF0.19136060735605726
aF0.19136060735605726
aI0
aI0
aF0.04319696321971368
aF0.19136060735605726
aF0.19136060735605726
aa(lp911
F0.3182275627564985
aI0
aF0.3182275627564985
aF0.3182275627564985
aI0
aI0
aI0
aF0.045317311730504545
aI0
aa(lp912
F0.9524187090179798
aI0
aI0
aF0.04758129098202024
aI0
aI0
aI0
aI0
aI0
aa(lp913
I0
aI1
aI0
aI0
aI0
aI0
aI0
aI0
aI0
aa(lp914
I0
aI0
aI0
aI0
aI1
aI0
aI0
aI0
aI0
aa(lp915
I0
aI0
aI0
aI0
aI0
aI0
aI0
aI0
aI1
aa(lp916
I0
aI0
aI1
aI0
aI0
aI0
aI0
aI0
aI0
aa(lp917
I1
aI0
aI0
aI0
aI0
aI0
aI0
aI0
aI0
aa(lp918
F0.13822889679788783
aF0.13822889679788783
aF0.032397722414785265
aF0.13822889679788783
aF0.13822889679788783
aF0.13822889679788783
aI0
aF0.13822889679788783
aF0.13822889679788783
aa(lp919
I0
aF0.19395769176926606
aI0
aF0.19395769176926606
aF0.030211541153669697
aF0.19395769176926606
aI0
aF0.19395769176926606
aF0.19395769176926606
aa(lp920
I0
aF0.02379064549101012
aI0
aF0.3254031181696633
aI0
aF0.3254031181696633
aI0
aI0
aF0.3254031181696633
aa(lp921
I0
aI0
aI0
aI0
aI0
aI0
aI1
aI0
aI0
aa(lp922
I1
aI0
aI0
aI0
aI0
aI0
aI0
aI0
aI0
aa(lp923
I0
aI0
aI0
aI0
aI0
aI0
aI0
aI1
aI0
aa(lp924
I0
aI0
aI0
aI1
aI0
aI0
aI0
aI0
aI0
aa(lp925
F0.13697000082206498
aF0.041209994245545084
aF0.13697000082206498
aI0
aF0.13697000082206498
aF0.13697000082206498
aF0.13697000082206498
aF0.13697000082206498
aF0.13697000082206498
aa(lp926
I0
aI0
aF0.04319696321971368
aI0
aF0.19136060735605726
aF0.19136060735605726
aF0.19136060735605726
aF0.19136060735605726
aF0.19136060735605726
aa(lp927
I0
aI0
aI0
aI0
aF0.3182275627564985
aF0.3182275627564985
aF0.045317311730504545
aI0
aF0.3182275627564985
aa(lp928
I0
aI0
aI0
aI0
aI0
aF0.04758129098202024
aI0
aI0
aF0.9524187090179798
aa(lp929
I0
aI0
aI0
aI1
aI0
aI0
aI0
aI0
aI0
aa(lp930
I1
aI0
aI0
aI0
aI0
aI0
aI0
aI0
aI0
aa(lp931
I0
aI0
aI0
aI0
aI0
aI0
aI0
aI1
aI0
aa(lp932
I0
aI0
aI0
aI0
aI1
aI0
aI0
aI0
aI0
aa(lp933
I0
aI0
aI0
aI0
aI0
aI0
aI0
aI0
aI1
aa(lp934
I0
aI0
aI1
aI0
aI0
aI0
aI0
aI0
aI0
aa(lp935
I1
aI0
aI0
aI0
aI0
aI0
aI0
aI0
aI0
aa(lp936
I0
aI1
aI0
aI0
aI0
aI0
aI0
aI0
aI0
aa(lp937
F0.12140025306502385
aF0.12140025306502385
aF0.12140025306502385
aF0.12140025306502385
aF0.12140025306502385
aF0.12140025306502385
aF0.12140025306502385
aF0.12140025306502385
aF0.028797975479809123
aa(lp938
F0.1623507322161424
aF0.1623507322161424
aI0
aF0.1623507322161424
aF0.025895606703145453
aF0.1623507322161424
aF0.1623507322161424
aF0.1623507322161424
aI0
aa(lp939
I0
aF0.24524187090179797
aI0
aF0.24524187090179797
aI0
aF0.019032516392808098
aF0.24524187090179797
aF0.24524187090179797
aI0
aa(lp940
I0
aI0
aI0
aI0
aI0
aI0
aI1
aI0
aI0
aa(lp941
I0
aI0
aI0
aI1
aI0
aI0
aI0
aI0
aI0
aa(lp942
I1
aI0
aI0
aI0
aI0
aI0
aI0
aI0
aI0
aa(lp943
F0.12140025306502385
aF0.12140025306502385
aF0.12140025306502385
aF0.12140025306502385
aF0.12140025306502385
aF0.12140025306502385
aF0.12140025306502385
aF0.12140025306502385
aF0.028797975479809123
aa(lp944
F0.1623507322161424
aF0.1623507322161424
aF0.1623507322161424
aF0.1623507322161424
aF0.025895606703145453
aF0.1623507322161424
aI0
aF0.1623507322161424
aI0
aa(lp945
F0.24524187090179797
aF0.019032516392808098
aF0.24524187090179797
aI0
aI0
aF0.24524187090179797
aI0
aF0.24524187090179797
aI0
aa(lp946
I1
aI0
aI0
aI0
aI0
aI0
aI0
aI0
aI0
aa(lp947
I0
aI0
aI0
aI0
aI0
aI0
aI0
aI1
aI0
aa(lp948
I0
aI0
aI0
aI0
aI0
aI0
aI0
aI0
aI1
aa(lp949
I0
aI0
aI0
aI0
aI1
aI0
aI0
aI0
aI0
aa(lp950
F0.12042111175049498
aF0.036631105996040074
aF0.12042111175049498
aF0.12042111175049498
aF0.12042111175049498
aF0.12042111175049498
aF0.12042111175049498
aF0.12042111175049498
aF0.12042111175049498
aa(lp951
I0
aI0
aF0.0370259684740403
aF0.16049567192099326
aF0.16049567192099326
aF0.16049567192099326
aF0.16049567192099326
aF0.16049567192099326
aF0.16049567192099326
aa(lp952
I0
aI0
aI0
aF0.2409365376538991
aF0.2409365376538991
aF0.2409365376538991
aF0.03625384938440364
aI0
aF0.2409365376538991
aa(lp953
I0
aI0
aI0
aF0.48413956967265986
aF0.48413956967265986
aF0.03172086065468016
aI0
aI0
aI0
aa(lp954
I1
aI0
aI0
aI0
aI0
aI0
aI0
aI0
aI0
aa(lp955
I0
aI0
aI0
aI0
aI0
aI1
aI0
aI0
aI0
aa(lp956
I0
aI0
aI0
aI0
aI0
aI0
aI0
aI0
aI1
aa(lp957
I0
aI0
aI1
aI0
aI0
aI0
aI0
aI0
aI0
aa(lp958
F0.12042111175049498
aF0.12042111175049498
aF0.12042111175049498
aF0.036631105996040074
aF0.12042111175049498
aF0.12042111175049498
aF0.12042111175049498
aF0.12042111175049498
aF0.12042111175049498
aa(lp959
I0
aF0.16049567192099326
aF0.16049567192099326
aI0
aF0.16049567192099326
aF0.16049567192099326
aF0.0370259684740403
aF0.16049567192099326
aF0.16049567192099326
aa(lp960
I0
aF0.03625384938440364
aF0.2409365376538991
aI0
aF0.2409365376538991
aI0
aI0
aF0.2409365376538991
aF0.2409365376538991
aa(lp961
I0
aI0
aF0.48413956967265986
aI0
aF0.48413956967265986
aI0
aI0
aF0.03172086065468016
aI0
aa(lp962
F0.13697000082206498
aF0.13697000082206498
aF0.13697000082206498
aF0.13697000082206498
aF0.041209994245545084
aF0.13697000082206498
aF0.13697000082206498
aF0.13697000082206498
aI0
aa(lp963
F0.19136060735605726
aI0
aF0.19136060735605726
aF0.19136060735605726
aI0
aF0.19136060735605726
aF0.04319696321971368
aF0.19136060735605726
aI0
aa(lp964
F0.045317311730504545
aI0
aI0
aF0.3182275627564985
aI0
aF0.3182275627564985
aI0
aF0.3182275627564985
aI0
aa(lp965
I0
aI0
aI0
aI0
aI0
aF0.9524187090179798
aI0
aF0.04758129098202024
aI0
aa(lp966
I0
aI0
aI0
aI0
aI0
aI0
aI0
aI0
aI1
aa(lp967
I0
aI1
aI0
aI0
aI0
aI0
aI0
aI0
aI0
aa(lp968
I0
aI0
aI1
aI0
aI0
aI0
aI0
aI0
aI0
aa(lp969
I0
aI0
aI0
aI1
aI0
aI0
aI0
aI0
aI0
aa(lp970
I0
aI0
aI0
aI0
aI0
aI1
aI0
aI0
aI0
aa(lp971
F0.13697000082206498
aF0.13697000082206498
aF0.13697000082206498
aF0.13697000082206498
aF0.041209994245545084
aF0.13697000082206498
aF0.13697000082206498
aF0.13697000082206498
aI0
aa(lp972
I0
aF0.19136060735605726
aF0.19136060735605726
aF0.19136060735605726
aI0
aF0.19136060735605726
aF0.19136060735605726
aF0.04319696321971368
aI0
aa(lp973
I0
aI0
aF0.3182275627564985
aF0.3182275627564985
aI0
aF0.045317311730504545
aF0.3182275627564985
aI0
aI0
aa(lp974
I0
aI0
aF0.04758129098202024
aF0.9524187090179798
aI0
aI0
aI0
aI0
aI0
aa(lp975
I0
aI0
aI0
aI0
aI0
aI0
aI0
aI0
aI1
aa(lp976
I1
aI0
aI0
aI0
aI0
aI0
aI0
aI0
aI0
aa(lp977
I0
aI1
aI0
aI0
aI0
aI0
aI0
aI0
aI0
aa(lp978
I0
aI0
aI0
aI0
aI0
aI0
aI1
aI0
aI0
aa(lp979
I0
aI0
aI0
aI1
aI0
aI0
aI0
aI0
aI0
aa(lp980
F0.041209994245545084
aF0.13697000082206498
aF0.13697000082206498
aF0.13697000082206498
aF0.13697000082206498
aF0.13697000082206498
aF0.13697000082206498
aI0
aF0.13697000082206498
aa(lp981
I0
aF0.19136060735605726
aF0.19136060735605726
aF0.19136060735605726
aI0
aF0.04319696321971368
aF0.19136060735605726
aI0
aF0.19136060735605726
aa(lp982
I0
aF0.045317311730504545
aF0.3182275627564985
aI0
aI0
aI0
aF0.3182275627564985
aI0
aF0.3182275627564985
aa(lp983
I0
aI0
aI0
aI0
aI0
aI0
aF0.9524187090179798
aI0
aF0.04758129098202024
aa(lp984
I0
aI0
aI0
aI0
aI0
aI0
aI0
aI1
aI0
aa(lp985
I0
aI0
aI0
aI0
aI1
aI0
aI0
aI0
aI0
aa(lp986
I0
aI0
aI0
aI1
aI0
aI0
aI0
aI0
aI0
aa(lp987
I0
aI0
aI1
aI0
aI0
aI0
aI0
aI0
aI0
aa(lp988
I0
aI0
aI0
aI0
aI0
aI0
aI1
aI0
aI0
aa(lp989
F0.13822889679788783
aF0.13822889679788783
aF0.032397722414785265
aI0
aF0.13822889679788783
aF0.13822889679788783
aF0.13822889679788783
aF0.13822889679788783
aF0.13822889679788783
aa(lp990
F0.19395769176926606
aF0.19395769176926606
aI0
aI0
aF0.19395769176926606
aF0.030211541153669697
aF0.19395769176926606
aF0.19395769176926606
aI0
aa(lp991
F0.3254031181696633
aF0.3254031181696633
aI0
aI0
aF0.02379064549101012
aI0
aI0
aF0.3254031181696633
aI0
aa(lp992
I0
aI0
aI0
aI1
aI0
aI0
aI0
aI0
aI0
aa(lp993
I0
aI0
aI0
aI0
aI0
aI0
aI0
aI0
aI1
aa(lp994
I0
aI0
aI0
aI0
aI0
aI0
aI1
aI0
aI0
aa(lp995
I0
aI0
aI0
aI0
aI0
aI0
aI0
aI1
aI0
aa(lp996
I0
aI1
aI0
aI0
aI0
aI0
aI0
aI0
aI0
aa(lp997
I1
aI0
aI0
aI0
aI0
aI0
aI0
aI0
aI0
aa(lp998
I0
aI0
aI1
aI0
aI0
aI0
aI0
aI0
aI0
aa(lp999
F0.12140025306502385
aF0.12140025306502385
aF0.12140025306502385
aF0.12140025306502385
aF0.12140025306502385
aF0.12140025306502385
aF0.028797975479809123
aF0.12140025306502385
aF0.12140025306502385
aa(lp1000
F0.1623507322161424
aI0
aF0.1623507322161424
aF0.1623507322161424
aF0.1623507322161424
aF0.025895606703145453
aI0
aF0.1623507322161424
aF0.1623507322161424
aa(lp1001
I0
aI0
aF0.24524187090179797
aF0.24524187090179797
aF0.24524187090179797
aI0
aI0
aF0.24524187090179797
aF0.019032516392808098
aa(lp1002
F0.1396201920192497
aF0.1396201920192497
aF0.1396201920192497
aF0.1396201920192497
aI0
aF0.1396201920192497
aF0.022658655865252272
aF0.1396201920192497
aF0.1396201920192497
aa(lp1003
I0
aF0.19682791393453197
aF0.19682791393453197
aF0.19682791393453197
aI0
aF0.19682791393453197
aI0
aF0.01586043032734008
aF0.19682791393453197
aa(lp1004
I0
aI0
aI0
aI0
aI1
aI0
aI0
aI0
aI0
aa(lp1005
I1
aI0
aI0
aI0
aI0
aI0
aI0
aI0
aI0
aa(lp1006
I0
aI0
aI0
aI0
aI0
aI0
aI0
aI0
aI1
aa(lp1007
F0.13697000082206498
aF0.13697000082206498
aI0
aF0.13697000082206498
aF0.13697000082206498
aF0.13697000082206498
aF0.13697000082206498
aF0.13697000082206498
aF0.041209994245545084
aa(lp1008
F0.04319696321971368
aI0
aI0
aF0.19136060735605726
aF0.19136060735605726
aF0.19136060735605726
aF0.19136060735605726
aF0.19136060735605726
aI0
aa(lp1009
I0
aI0
aI0
aI0
aF0.3182275627564985
aF0.045317311730504545
aF0.3182275627564985
aF0.3182275627564985
aI0
aa(lp1010
I0
aI0
aI0
aI0
aF0.9524187090179798
aI0
aF0.04758129098202024
aI0
aI0
aa(lp1011
I0
aI0
aI1
aI0
aI0
aI0
aI0
aI0
aI0
aa(lp1012
I0
aI1
aI0
aI0
aI0
aI0
aI0
aI0
aI0
aa(lp1013
I0
aI0
aI0
aI1
aI0
aI0
aI0
aI0
aI0
aa(lp1014
I0
aI0
aI0
aI0
aI0
aI0
aI0
aI1
aI0
aa(lp1015
I0
aI0
aI0
aI0
aI1
aI0
aI0
aI0
aI0
aa(lp1016
I0
aF0.13697000082206498
aF0.041209994245545084
aF0.13697000082206498
aF0.13697000082206498
aF0.13697000082206498
aF0.13697000082206498
aF0.13697000082206498
aF0.13697000082206498
aa(lp1017
I0
aI0
aI0
aF0.04319696321971368
aF0.19136060735605726
aF0.19136060735605726
aF0.19136060735605726
aF0.19136060735605726
aF0.19136060735605726
aa(lp1018
I0
aI0
aI0
aI0
aF0.045317311730504545
aF0.3182275627564985
aF0.3182275627564985
aF0.3182275627564985
aI0
aa(lp1019
I0
aI0
aI0
aI0
aI0
aF0.9524187090179798
aI0
aF0.04758129098202024
aI0
aa(lp1020
F0.04371881558748517
aF0.11953514805156436
aF0.11953514805156436
aF0.11953514805156436
aF0.11953514805156436
aF0.11953514805156436
aF0.11953514805156436
aF0.11953514805156436
aF0.11953514805156436
aa(lp1021
I0
aF0.04709713628062295
aI0
aF0.15881714395322952
aF0.15881714395322952
aF0.15881714395322952
aF0.15881714395322952
aF0.15881714395322952
aF0.15881714395322952
aa(lp1022
I0
aI0
aI0
aI0
aF0.23704091103408592
aF0.23704091103408592
aF0.23704091103408592
aF0.23704091103408592
aF0.051836355863656425
aa(lp1023
I0
aI0
aI0
aI0
aI0
aF0.46978845884633025
aF0.06042308230733939
aF0.46978845884633025
aI0
aa(lp1024
I0
aI0
aI0
aI0
aI0
aF0.09516258196404048
aI0
aI0
aI0
aa(lp1025
F0.13697000082206498
aF0.13697000082206498
aF0.13697000082206498
aF0.13697000082206498
aF0.041209994245545084
aF0.13697000082206498
aF0.13697000082206498
aF0.13697000082206498
aI0
aa(lp1026
F0.19136060735605726
aF0.19136060735605726
aF0.04319696321971368
aF0.19136060735605726
aI0
aF0.19136060735605726
aI0
aF0.19136060735605726
aI0
aa(lp1027
F0.3182275627564985
aF0.3182275627564985
aI0
aF0.045317311730504545
aI0
aI0
aI0
aF0.3182275627564985
aI0
aa(lp1028
F0.9524187090179798
aI0
aI0
aI0
aI0
aI0
aI0
aF0.04758129098202024
aI0
aa(lp1029
F0.11953514805156436
aF0.11953514805156436
aF0.11953514805156436
aF0.11953514805156436
aF0.11953514805156436
aF0.11953514805156436
aF0.11953514805156436
aF0.11953514805156436
aF0.04371881558748517
aa(lp1030
F0.15881714395322952
aF0.15881714395322952
aF0.15881714395322952
aF0.15881714395322952
aI0
aF0.15881714395322952
aF0.04709713628062295
aF0.15881714395322952
aI0
aa(lp1031
F0.23704091103408592
aF0.23704091103408592
aI0
aF0.23704091103408592
aI0
aF0.051836355863656425
aI0
aF0.23704091103408592
aI0
aa(lp1032
F0.46978845884633025
aF0.06042308230733939
aI0
aI0
aI0
aI0
aI0
aF0.46978845884633025
aI0
aa(lp1033
F0.09516258196404048
aI0
aI0
aI0
aI0
aI0
aI0
aI0
aI0
aa(lp1034
F0.1396201920192497
aF0.1396201920192497
aF0.1396201920192497
aF0.1396201920192497
aF0.1396201920192497
aF0.1396201920192497
aI0
aF0.022658655865252272
aF0.1396201920192497
aa(lp1035
F0.19682791393453197
aF0.19682791393453197
aF0.19682791393453197
aF0.19682791393453197
aI0
aF0.01586043032734008
aI0
aI0
aF0.19682791393453197
aa(lp1036
I0
aI0
aI0
aI0
aI0
aI0
aI1
aI0
aI0
aa(lp1037
I0
aI0
aI0
aI0
aI1
aI0
aI0
aI0
aI0
aa(lp1038
I0
aI0
aI1
aI0
aI0
aI0
aI0
aI0
aI0
aa(lp1039
F0.13697000082206498
aF0.13697000082206498
aF0.041209994245545084
aF0.13697000082206498
aF0.13697000082206498
aF0.13697000082206498
aF0.13697000082206498
aI0
aF0.13697000082206498
aa(lp1040
F0.19136060735605726
aF0.19136060735605726
aI0
aF0.19136060735605726
aF0.19136060735605726
aI0
aF0.04319696321971368
aI0
aF0.19136060735605726
aa(lp1041
F0.3182275627564985
aF0.3182275627564985
aI0
aF0.045317311730504545
aF0.3182275627564985
aI0
aI0
aI0
aI0
aa(lp1042
F0.9524187090179798
aF0.04758129098202024
aI0
aI0
aI0
aI0
aI0
aI0
aI0
aa(lp1043
I0
aI0
aI0
aI0
aI0
aI0
aI0
aI1
aI0
aa(lp1044
I0
aI0
aI0
aI0
aI0
aI1
aI0
aI0
aI0
aa(lp1045
I0
aI0
aI0
aI0
aI0
aI0
aI0
aI0
aI1
aa(lp1046
I0
aI0
aI0
aI0
aI1
aI0
aI0
aI0
aI0
aa(lp1047
I1
aI0
aI0
aI0
aI0
aI0
aI0
aI0
aI0
aa(lp1048
F0.13697000082206498
aF0.13697000082206498
aF0.13697000082206498
aF0.13697000082206498
aI0
aF0.13697000082206498
aF0.13697000082206498
aF0.041209994245545084
aF0.13697000082206498
aa(lp1049
F0.19136060735605726
aF0.19136060735605726
aF0.19136060735605726
aF0.19136060735605726
aI0
aI0
aF0.04319696321971368
aI0
aF0.19136060735605726
aa(lp1050
F0.3182275627564985
aI0
aF0.3182275627564985
aF0.045317311730504545
aI0
aI0
aI0
aI0
aF0.3182275627564985
aa(lp1051
F0.9524187090179798
aI0
aF0.04758129098202024
aI0
aI0
aI0
aI0
aI0
aI0
aa(lp1052
I0
aI0
aI0
aI0
aI1
aI0
aI0
aI0
aI0
aa(lp1053
I0
aI0
aI0
aI0
aI0
aI1
aI0
aI0
aI0
aa(lp1054
I0
aI1
aI0
aI0
aI0
aI0
aI0
aI0
aI0
aa(lp1055
I0
aI0
aI0
aI0
aI0
aI0
aI0
aI0
aI1
aa(lp1056
I1
aI0
aI0
aI0
aI0
aI0
aI0
aI0
aI0
aa(lp1057
F0.13822889679788783
aF0.032397722414785265
aF0.13822889679788783
aF0.13822889679788783
aI0
aF0.13822889679788783
aF0.13822889679788783
aF0.13822889679788783
aF0.13822889679788783
aa(lp1058
I0
aI0
aF0.030211541153669697
aF0.19395769176926606
aI0
aF0.19395769176926606
aF0.19395769176926606
aF0.19395769176926606
aF0.19395769176926606
aa(lp1059
I0
aI0
aI0
aI0
aI0
aF0.3254031181696633
aF0.3254031181696633
aF0.3254031181696633
aF0.02379064549101012
aa(lp1060
I0
aI0
aI0
aI0
aI1
aI0
aI0
aI0
aI0
aa(lp1061
I1
aI0
aI0
aI0
aI0
aI0
aI0
aI0
aI0
aa(lp1062
I0
aI0
aI0
aI1
aI0
aI0
aI0
aI0
aI0
aa(lp1063
I0
aI0
aI0
aI0
aI0
aI0
aI1
aI0
aI0
aa(lp1064
I0
aI1
aI0
aI0
aI0
aI0
aI0
aI0
aI0
aa(lp1065
I0
aI0
aI0
aI0
aI1
aI0
aI0
aI0
aI0
aa(lp1066
I0
aI0
aI0
aI0
aI0
aI0
aI1
aI0
aI0
aa(lp1067
I0
aI0
aI0
aI0
aI0
aI0
aI0
aI1
aI0
aa(lp1068
F0.12042111175049498
aF0.12042111175049498
aF0.12042111175049498
aF0.036631105996040074
aF0.12042111175049498
aF0.12042111175049498
aF0.12042111175049498
aF0.12042111175049498
aF0.12042111175049498
aa(lp1069
F0.16049567192099326
aI0
aF0.0370259684740403
aI0
aF0.16049567192099326
aF0.16049567192099326
aF0.16049567192099326
aF0.16049567192099326
aF0.16049567192099326
aa(lp1070
F0.2409365376538991
aI0
aI0
aI0
aI0
aF0.03625384938440364
aF0.2409365376538991
aF0.2409365376538991
aF0.2409365376538991
aa(lp1071
F0.03172086065468016
aI0
aI0
aI0
aI0
aI0
aI0
aF0.48413956967265986
aF0.48413956967265986
aa(lp1072
F0.13822889679788783
aF0.13822889679788783
aF0.13822889679788783
aF0.13822889679788783
aF0.13822889679788783
aI0
aF0.13822889679788783
aF0.032397722414785265
aF0.13822889679788783
aa(lp1073
F0.19395769176926606
aI0
aF0.030211541153669697
aF0.19395769176926606
aF0.19395769176926606
aI0
aF0.19395769176926606
aI0
aF0.19395769176926606
aa(lp1074
F0.3254031181696633
aI0
aI0
aI0
aF0.3254031181696633
aI0
aF0.3254031181696633
aI0
aF0.02379064549101012
aa(lp1075
I0
aI0
aI0
aI0
aI0
aI1
aI0
aI0
aI0
aa(lp1076
I0
aI1
aI0
aI0
aI0
aI0
aI0
aI0
aI0
aa(lp1077
I0
aI0
aI0
aI1
aI0
aI0
aI0
aI0
aI0
aa(lp1078
I0
aI0
aI0
aI0
aI1
aI0
aI0
aI0
aI0
aa(lp1079
I0
aF0.1396201920192497
aF0.1396201920192497
aF0.022658655865252272
aF0.1396201920192497
aF0.1396201920192497
aF0.1396201920192497
aF0.1396201920192497
aF0.1396201920192497
aa(lp1080
I0
aI0
aF0.19682791393453197
aI0
aF0.19682791393453197
aF0.01586043032734008
aF0.19682791393453197
aF0.19682791393453197
aF0.19682791393453197
aa(lp1081
I1
aI0
aI0
aI0
aI0
aI0
aI0
aI0
aI0
aa(lp1082
I0
aI1
aI0
aI0
aI0
aI0
aI0
aI0
aI0
aa(lp1083
I0
aI0
aI1
aI0
aI0
aI0
aI0
aI0
aI0
aa(lp1084
I0
aF0.13697000082206498
aF0.13697000082206498
aF0.13697000082206498
aF0.13697000082206498
aF0.13697000082206498
aF0.13697000082206498
aF0.13697000082206498
aF0.041209994245545084
aa(lp1085
I0
aF0.19136060735605726
aF0.19136060735605726
aF0.19136060735605726
aF0.19136060735605726
aI0
aF0.19136060735605726
aF0.04319696321971368
aI0
aa(lp1086
I0
aF0.3182275627564985
aF0.3182275627564985
aF0.045317311730504545
aI0
aI0
aF0.3182275627564985
aI0
aI0
aa(lp1087
I0
aF0.04758129098202024
aI0
aI0
aI0
aI0
aF0.9524187090179798
aI0
aI0
aa(lp1088
I1
aI0
aI0
aI0
aI0
aI0
aI0
aI0
aI0
aa(lp1089
I0
aI0
aI0
aI0
aI0
aI1
aI0
aI0
aI0
aa(lp1090
I0
aI0
aI0
aI0
aI1
aI0
aI0
aI0
aI0
aa(lp1091
I0
aI0
aI1
aI0
aI0
aI0
aI0
aI0
aI0
aa(lp1092
I0
aI0
aI0
aI0
aI0
aI0
aI1
aI0
aI0
aa(lp1093
F0.13822889679788783
aI0
aF0.13822889679788783
aF0.13822889679788783
aF0.13822889679788783
aF0.032397722414785265
aF0.13822889679788783
aF0.13822889679788783
aF0.13822889679788783
aa(lp1094
F0.030211541153669697
aI0
aI0
aF0.19395769176926606
aF0.19395769176926606
aI0
aF0.19395769176926606
aF0.19395769176926606
aF0.19395769176926606
aa(lp1095
I0
aI0
aI0
aF0.3254031181696633
aI0
aI0
aF0.3254031181696633
aF0.02379064549101012
aF0.3254031181696633
aa(lp1096
I0
aI1
aI0
aI0
aI0
aI0
aI0
aI0
aI0
aa(lp1097
I0
aI0
aI1
aI0
aI0
aI0
aI0
aI0
aI0
aa(lp1098
I0
aI0
aI0
aI0
aI1
aI0
aI0
aI0
aI0
aa(lp1099
I0
aI0
aI0
aI0
aI0
aI0
aI1
aI0
aI0
aa(lp1100
F0.13697000082206498
aF0.13697000082206498
aF0.13697000082206498
aI0
aF0.041209994245545084
aF0.13697000082206498
aF0.13697000082206498
aF0.13697000082206498
aF0.13697000082206498
aa(lp1101
F0.19136060735605726
aF0.19136060735605726
aI0
aI0
aI0
aF0.04319696321971368
aF0.19136060735605726
aF0.19136060735605726
aF0.19136060735605726
aa(lp1102
F0.045317311730504545
aF0.3182275627564985
aI0
aI0
aI0
aI0
aF0.3182275627564985
aF0.3182275627564985
aI0
aa(lp1103
I0
aI0
aI0
aI0
aI0
aI0
aF0.9524187090179798
aF0.04758129098202024
aI0
aa(lp1104
F0.11953514805156436
aF0.11953514805156436
aF0.11953514805156436
aF0.04371881558748517
aF0.11953514805156436
aF0.11953514805156436
aF0.11953514805156436
aF0.11953514805156436
aF0.11953514805156436
aa(lp1105
F0.15881714395322952
aF0.15881714395322952
aF0.04709713628062295
aI0
aI0
aF0.15881714395322952
aF0.15881714395322952
aF0.15881714395322952
aF0.15881714395322952
aa(lp1106
F0.23704091103408592
aF0.23704091103408592
aI0
aI0
aI0
aI0
aF0.23704091103408592
aF0.23704091103408592
aF0.051836355863656425
aa(lp1107
I0
aF0.06042308230733939
aI0
aI0
aI0
aI0
aF0.46978845884633025
aF0.46978845884633025
aI0
aa(lp1108
I0
aI0
aI0
aI0
aI0
aI0
aF0.09516258196404048
aI0
aI0
aa(lp1109
I0
aI0
aI0
aI0
aI1
aI0
aI0
aI0
aI0
aa(lp1110
I0
aI0
aI0
aI0
aI0
aI1
aI0
aI0
aI0
aa(lp1111
I0
aI0
aI0
aI1
aI0
aI0
aI0
aI0
aI0
aa(lp1112
F0.12140025306502385
aF0.12140025306502385
aF0.12140025306502385
aF0.12140025306502385
aF0.12140025306502385
aF0.12140025306502385
aF0.12140025306502385
aF0.028797975479809123
aF0.12140025306502385
aa(lp1113
F0.025895606703145453
aF0.1623507322161424
aF0.1623507322161424
aF0.1623507322161424
aI0
aF0.1623507322161424
aF0.1623507322161424
aI0
aF0.1623507322161424
aa(lp1114
I0
aF0.24524187090179797
aF0.24524187090179797
aF0.24524187090179797
aI0
aI0
aF0.019032516392808098
aI0
aF0.24524187090179797
aa(lp1115
F0.13697000082206498
aF0.13697000082206498
aF0.13697000082206498
aF0.13697000082206498
aI0
aF0.041209994245545084
aF0.13697000082206498
aF0.13697000082206498
aF0.13697000082206498
aa(lp1116
F0.19136060735605726
aF0.19136060735605726
aI0
aF0.04319696321971368
aI0
aI0
aF0.19136060735605726
aF0.19136060735605726
aF0.19136060735605726
aa(lp1117
F0.045317311730504545
aF0.3182275627564985
aI0
aI0
aI0
aI0
aF0.3182275627564985
aF0.3182275627564985
aI0
aa(lp1118
I0
aF0.04758129098202024
aI0
aI0
aI0
aI0
aF0.9524187090179798
aI0
aI0
aa(lp1119
I0
aI0
aI0
aI0
aI1
aI0
aI0
aI0
aI0
aa(lp1120
I0
aI0
aI1
aI0
aI0
aI0
aI0
aI0
aI0
aa(lp1121
I0
aI0
aI0
aI0
aI0
aI0
aI0
aI0
aI1
aa(lp1122
I0
aI0
aI0
aI0
aI0
aI0
aI0
aI1
aI0
aa(lp1123
I0
aI0
aI0
aI0
aI0
aI0
aI1
aI0
aI0
aa(lp1124
I0
aF0.13822889679788783
aF0.13822889679788783
aF0.13822889679788783
aF0.032397722414785265
aF0.13822889679788783
aF0.13822889679788783
aF0.13822889679788783
aF0.13822889679788783
aa(lp1125
I0
aI0
aF0.19395769176926606
aF0.19395769176926606
aI0
aF0.030211541153669697
aF0.19395769176926606
aF0.19395769176926606
aF0.19395769176926606
aa(lp1126
I0
aI0
aF0.3254031181696633
aF0.3254031181696633
aI0
aI0
aF0.02379064549101012
aI0
aF0.3254031181696633
aa(lp1127
I1
aI0
aI0
aI0
aI0
aI0
aI0
aI0
aI0
aa(lp1128
I0
aI1
aI0
aI0
aI0
aI0
aI0
aI0
aI0
aa(lp1129
I0
aI0
aI0
aI0
aI0
aI0
aI0
aI1
aI0
aa(lp1130
I0
aI0
aI1
aI0
aI0
aI0
aI0
aI0
aI0
aa(lp1131
F0.13697000082206498
aF0.041209994245545084
aI0
aF0.13697000082206498
aF0.13697000082206498
aF0.13697000082206498
aF0.13697000082206498
aF0.13697000082206498
aF0.13697000082206498
aa(lp1132
F0.19136060735605726
aI0
aI0
aI0
aF0.04319696321971368
aF0.19136060735605726
aF0.19136060735605726
aF0.19136060735605726
aF0.19136060735605726
aa(lp1133
F0.045317311730504545
aI0
aI0
aI0
aI0
aF0.3182275627564985
aF0.3182275627564985
aI0
aF0.3182275627564985
aa(lp1134
I0
aI0
aI0
aI0
aI0
aI0
aF0.04758129098202024
aI0
aF0.9524187090179798
aa(lp1135
I0
aI0
aI1
aI0
aI0
aI0
aI0
aI0
aI0
aa(lp1136
I0
aI0
aI0
aI1
aI0
aI0
aI0
aI0
aI0
aa(lp1137
I0
aI0
aI0
aI0
aI0
aI0
aI0
aI1
aI0
aa(lp1138
I0
aI0
aI0
aI0
aI0
aI1
aI0
aI0
aI0
aa(lp1139
I0
aI0
aI0
aI0
aI0
aI0
aI0
aI0
aI1
aa(lp1140
I0
aI0
aI0
aI0
aI0
aI0
aI0
aI1
aI0
aa(lp1141
I0
aI0
aI0
aI1
aI0
aI0
aI0
aI0
aI0
aa(lp1142
I0
aI0
aI0
aI0
aI0
aI0
aI1
aI0
aI0
aa(lp1143
I0
aI0
aI0
aI0
aI0
aI0
aI0
aI0
aI1
aa(lp1144
F0.12042111175049498
aF0.036631105996040074
aF0.12042111175049498
aF0.12042111175049498
aF0.12042111175049498
aF0.12042111175049498
aF0.12042111175049498
aF0.12042111175049498
aF0.12042111175049498
aa(lp1145
F0.16049567192099326
aI0
aF0.16049567192099326
aF0.16049567192099326
aF0.16049567192099326
aF0.0370259684740403
aF0.16049567192099326
aI0
aF0.16049567192099326
aa(lp1146
F0.2409365376538991
aI0
aF0.2409365376538991
aI0
aF0.03625384938440364
aI0
aF0.2409365376538991
aI0
aF0.2409365376538991
aa(lp1147
F0.03172086065468016
aI0
aF0.48413956967265986
aI0
aI0
aI0
aI0
aI0
aF0.48413956967265986
aa(lp1148
F0.13697000082206498
aF0.13697000082206498
aF0.13697000082206498
aF0.13697000082206498
aF0.041209994245545084
aI0
aF0.13697000082206498
aF0.13697000082206498
aF0.13697000082206498
aa(lp1149
F0.19136060735605726
aF0.19136060735605726
aF0.19136060735605726
aF0.04319696321971368
aI0
aI0
aF0.19136060735605726
aF0.19136060735605726
aI0
aa(lp1150
F0.3182275627564985
aF0.3182275627564985
aF0.3182275627564985
aI0
aI0
aI0
aI0
aF0.045317311730504545
aI0
aa(lp1151
I0
aF0.9524187090179798
aF0.04758129098202024
aI0
aI0
aI0
aI0
aI0
aI0
aa(lp1152
F0.11953514805156436
aF0.11953514805156436
aF0.11953514805156436
aF0.11953514805156436
aF0.11953514805156436
aF0.04371881558748517
aF0.11953514805156436
aF0.11953514805156436
aF0.11953514805156436
aa(lp1153
F0.15881714395322952
aF0.15881714395322952
aF0.15881714395322952
aF0.15881714395322952
aI0
aI0
aF0.15881714395322952
aF0.15881714395322952
aF0.04709713628062295
aa(lp1154
F0.23704091103408592
aF0.23704091103408592
aF0.23704091103408592
aI0
aI0
aI0
aF0.051836355863656425
aF0.23704091103408592
aI0
aa(lp1155
F0.06042308230733939
aF0.46978845884633025
aF0.46978845884633025
aI0
aI0
aI0
aI0
aI0
aI0
aa(lp1156
I0
aF0.09516258196404048
aI0
aI0
aI0
aI0
aI0
aI0
aI0
aa(lp1157
I0
aI0
aI1
aI0
aI0
aI0
aI0
aI0
aI0
aa(lp1158
I0
aI0
aI0
aI1
aI0
aI0
aI0
aI0
aI0
aa(lp1159
I1
aI0
aI0
aI0
aI0
aI0
aI0
aI0
aI0
aa(lp1160
I0
aI0
aI0
aI0
aI0
aI0
aI1
aI0
aI0
aa(lp1161
F0.12042111175049498
aF0.036631105996040074
aF0.12042111175049498
aF0.12042111175049498
aF0.12042111175049498
aF0.12042111175049498
aF0.12042111175049498
aF0.12042111175049498
aF0.12042111175049498
aa(lp1162
F0.16049567192099326
aI0
aI0
aF0.16049567192099326
aF0.16049567192099326
aF0.0370259684740403
aF0.16049567192099326
aF0.16049567192099326
aF0.16049567192099326
aa(lp1163
F0.2409365376538991
aI0
aI0
aI0
aF0.2409365376538991
aI0
aF0.2409365376538991
aF0.03625384938440364
aF0.2409365376538991
aa(lp1164
I0
aI0
aI0
aI0
aF0.48413956967265986
aI0
aF0.48413956967265986
aI0
aF0.03172086065468016
aa(lp1165
F0.13697000082206498
aF0.13697000082206498
aF0.13697000082206498
aF0.13697000082206498
aF0.13697000082206498
aF0.13697000082206498
aF0.041209994245545084
aF0.13697000082206498
aI0
aa(lp1166
F0.19136060735605726
aF0.04319696321971368
aI0
aF0.19136060735605726
aF0.19136060735605726
aF0.19136060735605726
aI0
aF0.19136060735605726
aI0
aa(lp1167
F0.3182275627564985
aI0
aI0
aF0.3182275627564985
aI0
aF0.3182275627564985
aI0
aF0.045317311730504545
aI0
aa(lp1168
F0.9524187090179798
aI0
aI0
aI0
aI0
aF0.04758129098202024
aI0
aI0
aI0
aa(lp1169
I0
aI0
aI0
aI0
aI0
aI0
aI0
aI0
aI1
aa(lp1170
I0
aI0
aI1
aI0
aI0
aI0
aI0
aI0
aI0
aa(lp1171
I0
aI0
aI0
aI0
aI1
aI0
aI0
aI0
aI0
aa(lp1172
I0
aI0
aI0
aI1
aI0
aI0
aI0
aI0
aI0
aa(lp1173
I1
aI0
aI0
aI0
aI0
aI0
aI0
aI0
aI0
aa(lp1174
I0
aF0.1396201920192497
aF0.1396201920192497
aF0.1396201920192497
aF0.1396201920192497
aF0.1396201920192497
aF0.022658655865252272
aF0.1396201920192497
aF0.1396201920192497
aa(lp1175
I0
aF0.19682791393453197
aI0
aF0.01586043032734008
aF0.19682791393453197
aF0.19682791393453197
aI0
aF0.19682791393453197
aF0.19682791393453197
aa(lp1176
I1
aI0
aI0
aI0
aI0
aI0
aI0
aI0
aI0
aa(lp1177
I0
aI0
aI1
aI0
aI0
aI0
aI0
aI0
aI0
aa(lp1178
I0
aI1
aI0
aI0
aI0
aI0
aI0
aI0
aI0
aa(lp1179
F0.032397722414785265
aF0.13822889679788783
aF0.13822889679788783
aF0.13822889679788783
aF0.13822889679788783
aF0.13822889679788783
aI0
aF0.13822889679788783
aF0.13822889679788783
aa(lp1180
I0
aI0
aF0.19395769176926606
aF0.19395769176926606
aF0.19395769176926606
aF0.19395769176926606
aI0
aF0.030211541153669697
aF0.19395769176926606
aa(lp1181
I0
aI0
aF0.3254031181696633
aF0.3254031181696633
aI0
aF0.3254031181696633
aI0
aI0
aF0.02379064549101012
aa(lp1182
I0
aI0
aI0
aI0
aI0
aI0
aI1
aI0
aI0
aa(lp1183
I0
aI1
aI0
aI0
aI0
aI0
aI0
aI0
aI0
aa(lp1184
I0
aI0
aI0
aI0
aI1
aI0
aI0
aI0
aI0
aa(lp1185
I0
aI0
aI1
aI0
aI0
aI0
aI0
aI0
aI0
aa(lp1186
F0.13697000082206498
aF0.13697000082206498
aF0.13697000082206498
aF0.13697000082206498
aF0.13697000082206498
aI0
aF0.13697000082206498
aF0.041209994245545084
aF0.13697000082206498
aa(lp1187
F0.19136060735605726
aI0
aF0.19136060735605726
aF0.19136060735605726
aF0.19136060735605726
aI0
aF0.19136060735605726
aI0
aF0.04319696321971368
aa(lp1188
F0.3182275627564985
aI0
aF0.3182275627564985
aF0.3182275627564985
aF0.045317311730504545
aI0
aI0
aI0
aI0
aa(lp1189
I0
aI0
aF0.04758129098202024
aF0.9524187090179798
aI0
aI0
aI0
aI0
aI0
aa(lp1190
I0
aI0
aI0
aI0
aI0
aI1
aI0
aI0
aI0
aa(lp1191
I0
aI1
aI0
aI0
aI0
aI0
aI0
aI0
aI0
aa(lp1192
I0
aI0
aI0
aI0
aI0
aI0
aI1
aI0
aI0
aa(lp1193
I1
aI0
aI0
aI0
aI0
aI0
aI0
aI0
aI0
aa(lp1194
I0
aI0
aI0
aI1
aI0
aI0
aI0
aI0
aI0
aa(lp1195
F0.022658655865252272
aF0.1396201920192497
aI0
aF0.1396201920192497
aF0.1396201920192497
aF0.1396201920192497
aF0.1396201920192497
aF0.1396201920192497
aF0.1396201920192497
aa(lp1196
I0
aF0.01586043032734008
aI0
aF0.19682791393453197
aI0
aF0.19682791393453197
aF0.19682791393453197
aF0.19682791393453197
aF0.19682791393453197
aa(lp1197
I0
aI0
aI1
aI0
aI0
aI0
aI0
aI0
aI0
aa(lp1198
I0
aI0
aI0
aI0
aI1
aI0
aI0
aI0
aI0
aa(lp1199
I0
aI0
aI0
aI0
aI0
aI0
aI1
aI0
aI0
aa(lp1200
F0.13697000082206498
aF0.041209994245545084
aF0.13697000082206498
aF0.13697000082206498
aF0.13697000082206498
aF0.13697000082206498
aF0.13697000082206498
aI0
aF0.13697000082206498
aa(lp1201
F0.19136060735605726
aI0
aF0.19136060735605726
aF0.19136060735605726
aF0.04319696321971368
aF0.19136060735605726
aI0
aI0
aF0.19136060735605726
aa(lp1202
F0.3182275627564985
aI0
aI0
aF0.3182275627564985
aI0
aF0.3182275627564985
aI0
aI0
aF0.045317311730504545
aa(lp1203
F0.9524187090179798
aI0
aI0
aI0
aI0
aF0.04758129098202024
aI0
aI0
aI0
aa(lp1204
I0
aI0
aI0
aI0
aI0
aI0
aI0
aI1
aI0
aa(lp1205
I0
aI0
aI0
aI0
aI0
aI0
aI1
aI0
aI0
aa(lp1206
I0
aI0
aI1
aI0
aI0
aI0
aI0
aI0
aI0
aa(lp1207
I0
aI0
aI0
aI1
aI0
aI0
aI0
aI0
aI0
aa(lp1208
I1
aI0
aI0
aI0
aI0
aI0
aI0
aI0
aI0
aa(lp1209
I1
aI0
aI0
aI0
aI0
aI0
aI0
aI0
aI0
aa(lp1210
I0
aI1
aI0
aI0
aI0
aI0
aI0
aI0
aI0
aa(lp1211
I0
aI0
aI0
aI1
aI0
aI0
aI0
aI0
aI0
aa(lp1212
I0
aI0
aI0
aI0
aI0
aI0
aI1
aI0
aI0
aa(lp1213
F0.12042111175049498
aF0.12042111175049498
aF0.12042111175049498
aF0.12042111175049498
aF0.12042111175049498
aF0.12042111175049498
aF0.12042111175049498
aF0.036631105996040074
aF0.12042111175049498
aa(lp1214
I0
aF0.16049567192099326
aF0.0370259684740403
aF0.16049567192099326
aF0.16049567192099326
aF0.16049567192099326
aF0.16049567192099326
aI0
aF0.16049567192099326
aa(lp1215
I0
aI0
aI0
aF0.2409365376538991
aF0.03625384938440364
aF0.2409365376538991
aF0.2409365376538991
aI0
aF0.2409365376538991
aa(lp1216
I0
aI0
aI0
aI0
aI0
aF0.48413956967265986
aF0.48413956967265986
aI0
aF0.03172086065468016
aa(lp1217
F0.022658655865252272
aF0.1396201920192497
aF0.1396201920192497
aF0.1396201920192497
aF0.1396201920192497
aI0
aF0.1396201920192497
aF0.1396201920192497
aF0.1396201920192497
aa(lp1218
I0
aF0.19682791393453197
aF0.01586043032734008
aF0.19682791393453197
aI0
aI0
aF0.19682791393453197
aF0.19682791393453197
aF0.19682791393453197
aa(lp1219
I0
aI0
aI0
aI0
aI0
aI1
aI0
aI0
aI0
aa(lp1220
I0
aI0
aI0
aI0
aI1
aI0
aI0
aI0
aI0
aa(lp1221
I0
aI0
aI0
aI1
aI0
aI0
aI0
aI0
aI0
aa(lp1222
I0
aF0.13697000082206498
aF0.13697000082206498
aF0.13697000082206498
aF0.13697000082206498
aF0.13697000082206498
aF0.13697000082206498
aF0.13697000082206498
aF0.041209994245545084
aa(lp1223
I0
aF0.19136060735605726
aF0.04319696321971368
aF0.19136060735605726
aF0.19136060735605726
aF0.19136060735605726
aF0.19136060735605726
aI0
aI0
aa(lp1224
I0
aF0.045317311730504545
aI0
aF0.3182275627564985
aF0.3182275627564985
aF0.3182275627564985
aI0
aI0
aI0
aa(lp1225
I0
aI0
aI0
aF0.04758129098202024
aI0
aF0.9524187090179798
aI0
aI0
aI0
aa(lp1226
F0.04371881558748517
aF0.11953514805156436
aF0.11953514805156436
aF0.11953514805156436
aF0.11953514805156436
aF0.11953514805156436
aF0.11953514805156436
aF0.11953514805156436
aF0.11953514805156436
aa(lp1227
I0
aF0.15881714395322952
aF0.15881714395322952
aF0.15881714395322952
aF0.15881714395322952
aF0.15881714395322952
aF0.15881714395322952
aF0.04709713628062295
aI0
aa(lp1228
I0
aF0.23704091103408592
aI0
aF0.23704091103408592
aF0.23704091103408592
aF0.23704091103408592
aF0.051836355863656425
aI0
aI0
aa(lp1229
I0
aI0
aI0
aF0.46978845884633025
aF0.06042308230733939
aF0.46978845884633025
aI0
aI0
aI0
aa(lp1230
I0
aI0
aI0
aI0
aI0
aF0.09516258196404048
aI0
aI0
aI0
aa(lp1231
I1
aI0
aI0
aI0
aI0
aI0
aI0
aI0
aI0
aa(lp1232
I0
aI0
aI1
aI0
aI0
aI0
aI0
aI0
aI0
aa(lp1233
I0
aI0
aI0
aI0
aI1
aI0
aI0
aI0
aI0
aa(lp1234
I0
aI0
aI0
aI0
aI0
aI0
aI1
aI0
aI0
aa(lp1235
F0.12042111175049498
aF0.036631105996040074
aF0.12042111175049498
aF0.12042111175049498
aF0.12042111175049498
aF0.12042111175049498
aF0.12042111175049498
aF0.12042111175049498
aF0.12042111175049498
aa(lp1236
I0
aI0
aF0.16049567192099326
aF0.16049567192099326
aF0.16049567192099326
aF0.0370259684740403
aF0.16049567192099326
aF0.16049567192099326
aF0.16049567192099326
aa(lp1237
I0
aI0
aI0
aF0.2409365376538991
aF0.2409365376538991
aI0
aF0.2409365376538991
aF0.2409365376538991
aF0.03625384938440364
aa(lp1238
I0
aI0
aI0
aF0.48413956967265986
aI0
aI0
aF0.48413956967265986
aF0.03172086065468016
aI0
aa(lp1239
F0.13822889679788783
aF0.13822889679788783
aF0.13822889679788783
aI0
aF0.13822889679788783
aF0.032397722414785265
aF0.13822889679788783
aF0.13822889679788783
aF0.13822889679788783
aa(lp1240
F0.030211541153669697
aF0.19395769176926606
aF0.19395769176926606
aI0
aF0.19395769176926606
aI0
aI0
aF0.19395769176926606
aF0.19395769176926606
aa(lp1241
I0
aF0.3254031181696633
aF0.3254031181696633
aI0
aF0.02379064549101012
aI0
aI0
aI0
aF0.3254031181696633
aa(lp1242
I0
aI0
aI0
aI1
aI0
aI0
aI0
aI0
aI0
aa(lp1243
I0
aI0
aI0
aI0
aI0
aI0
aI1
aI0
aI0
aa(lp1244
I0
aI0
aI0
aI0
aI0
aI0
aI0
aI1
aI0
aa(lp1245
I0
aI0
aI0
aI0
aI0
aI0
aI0
aI0
aI1
aa(lp1246
F0.13697000082206498
aI0
aF0.13697000082206498
aF0.13697000082206498
aF0.13697000082206498
aF0.13697000082206498
aF0.13697000082206498
aF0.13697000082206498
aF0.041209994245545084
aa(lp1247
F0.04319696321971368
aI0
aF0.19136060735605726
aF0.19136060735605726
aI0
aF0.19136060735605726
aF0.19136060735605726
aF0.19136060735605726
aI0
aa(lp1248
I0
aI0
aF0.045317311730504545
aF0.3182275627564985
aI0
aI0
aF0.3182275627564985
aF0.3182275627564985
aI0
aa(lp1249
I0
aI0
aI0
aF0.9524187090179798
aI0
aI0
aI0
aF0.04758129098202024
aI0
aa(lp1250
I0
aI1
aI0
aI0
aI0
aI0
aI0
aI0
aI0
aa(lp1251
I0
aI0
aI0
aI0
aI1
aI0
aI0
aI0
aI0
aa(lp1252
I0
aI0
aI0
aI0
aI0
aI1
aI0
aI0
aI0
aa(lp1253
I0
aI0
aI0
aI0
aI0
aI0
aI1
aI0
aI0
aa(lp1254
I0
aI0
aI0
aI1
aI0
aI0
aI0
aI0
aI0
aa(lp1255
F0.13822889679788783
aF0.13822889679788783
aF0.13822889679788783
aI0
aF0.032397722414785265
aF0.13822889679788783
aF0.13822889679788783
aF0.13822889679788783
aF0.13822889679788783
aa(lp1256
F0.19395769176926606
aF0.19395769176926606
aF0.19395769176926606
aI0
aI0
aF0.19395769176926606
aI0
aF0.19395769176926606
aF0.030211541153669697
aa(lp1257
F0.3254031181696633
aF0.3254031181696633
aF0.02379064549101012
aI0
aI0
aF0.3254031181696633
aI0
aI0
aI0
aa(lp1258
I0
aI0
aI0
aI1
aI0
aI0
aI0
aI0
aI0
aa(lp1259
I0
aI0
aI0
aI0
aI0
aI0
aI1
aI0
aI0
aa(lp1260
I0
aI0
aI0
aI0
aI0
aI0
aI0
aI1
aI0
aa(lp1261
I1
aI0
aI0
aI0
aI0
aI0
aI0
aI0
aI0
aa(lp1262
F0.13697000082206498
aF0.13697000082206498
aF0.13697000082206498
aF0.041209994245545084
aF0.13697000082206498
aI0
aF0.13697000082206498
aF0.13697000082206498
aF0.13697000082206498
aa(lp1263
F0.19136060735605726
aF0.19136060735605726
aI0
aI0
aF0.04319696321971368
aI0
aF0.19136060735605726
aF0.19136060735605726
aF0.19136060735605726
aa(lp1264
F0.3182275627564985
aF0.3182275627564985
aI0
aI0
aI0
aI0
aF0.3182275627564985
aI0
aF0.045317311730504545
aa(lp1265
F0.9524187090179798
aF0.04758129098202024
aI0
aI0
aI0
aI0
aI0
aI0
aI0
aa(lp1266
F0.11953514805156436
aF0.11953514805156436
aF0.11953514805156436
aF0.11953514805156436
aF0.11953514805156436
aF0.04371881558748517
aF0.11953514805156436
aF0.11953514805156436
aF0.11953514805156436
aa(lp1267
F0.15881714395322952
aF0.15881714395322952
aF0.04709713628062295
aI0
aF0.15881714395322952
aI0
aF0.15881714395322952
aF0.15881714395322952
aF0.15881714395322952
aa(lp1268
F0.23704091103408592
aF0.23704091103408592
aI0
aI0
aI0
aI0
aF0.23704091103408592
aF0.051836355863656425
aF0.23704091103408592
aa(lp1269
F0.46978845884633025
aF0.46978845884633025
aI0
aI0
aI0
aI0
aF0.06042308230733939
aI0
aI0
aa(lp1270
F0.09516258196404048
aI0
aI0
aI0
aI0
aI0
aI0
aI0
aI0
aa(lp1271
F0.13697000082206498
aI0
aF0.041209994245545084
aF0.13697000082206498
aF0.13697000082206498
aF0.13697000082206498
aF0.13697000082206498
aF0.13697000082206498
aF0.13697000082206498
aa(lp1272
F0.19136060735605726
aI0
aI0
aF0.04319696321971368
aF0.19136060735605726
aF0.19136060735605726
aF0.19136060735605726
aF0.19136060735605726
aI0
aa(lp1273
F0.3182275627564985
aI0
aI0
aI0
aF0.3182275627564985
aF0.3182275627564985
aI0
aF0.045317311730504545
aI0
aa(lp1274
F0.04758129098202024
aI0
aI0
aI0
aI0
aF0.9524187090179798
aI0
aI0
aI0
aa(lp1275
F0.11953514805156436
aF0.04371881558748517
aF0.11953514805156436
aF0.11953514805156436
aF0.11953514805156436
aF0.11953514805156436
aF0.11953514805156436
aF0.11953514805156436
aF0.11953514805156436
aa(lp1276
F0.15881714395322952
aI0
aI0
aF0.15881714395322952
aF0.15881714395322952
aF0.15881714395322952
aF0.15881714395322952
aF0.15881714395322952
aF0.04709713628062295
aa(lp1277
F0.23704091103408592
aI0
aI0
aI0
aF0.23704091103408592
aF0.23704091103408592
aF0.051836355863656425
aF0.23704091103408592
aI0
aa(lp1278
F0.46978845884633025
aI0
aI0
aI0
aF0.06042308230733939
aF0.46978845884633025
aI0
aI0
aI0
aa(lp1279
I0
aI0
aI0
aI0
aI0
aF0.09516258196404048
aI0
aI0
aI0
aa(lp1280
I0
aI1
aI0
aI0
aI0
aI0
aI0
aI0
aI0
aa(lp1281
I1
aI0
aI0
aI0
aI0
aI0
aI0
aI0
aI0
aa(lp1282
I0
aI0
aI0
aI0
aI0
aI0
aI0
aI1
aI0
aa(lp1283
I0
aI0
aI0
aI0
aI1
aI0
aI0
aI0
aI0
aa(lp1284
F0.12042111175049498
aF0.12042111175049498
aF0.12042111175049498
aF0.12042111175049498
aF0.12042111175049498
aF0.12042111175049498
aF0.036631105996040074
aF0.12042111175049498
aF0.12042111175049498
aa(lp1285
F0.16049567192099326
aI0
aF0.16049567192099326
aF0.16049567192099326
aF0.16049567192099326
aF0.16049567192099326
aI0
aF0.16049567192099326
aF0.0370259684740403
aa(lp1286
I0
aI0
aF0.2409365376538991
aF0.2409365376538991
aF0.2409365376538991
aF0.03625384938440364
aI0
aF0.2409365376538991
aI0
aa(lp1287
I0
aI0
aF0.48413956967265986
aF0.03172086065468016
aF0.48413956967265986
aI0
aI0
aI0
aI0
aa(lp1288
F0.13697000082206498
aI0
aF0.13697000082206498
aF0.041209994245545084
aF0.13697000082206498
aF0.13697000082206498
aF0.13697000082206498
aF0.13697000082206498
aF0.13697000082206498
aa(lp1289
F0.19136060735605726
aI0
aF0.19136060735605726
aI0
aF0.19136060735605726
aF0.04319696321971368
aF0.19136060735605726
aF0.19136060735605726
aI0
aa(lp1290
F0.3182275627564985
aI0
aI0
aI0
aF0.3182275627564985
aI0
aF0.045317311730504545
aF0.3182275627564985
aI0
aa(lp1291
F0.9524187090179798
aI0
aI0
aI0
aI0
aI0
aI0
aF0.04758129098202024
aI0
aa(lp1292
I0
aI1
aI0
aI0
aI0
aI0
aI0
aI0
aI0
aa(lp1293
I0
aI0
aI0
aI0
aI0
aI0
aI0
aI0
aI1
aa(lp1294
I0
aI0
aI1
aI0
aI0
aI0
aI0
aI0
aI0
aa(lp1295
I0
aI0
aI0
aI0
aI1
aI0
aI0
aI0
aI0
aa(lp1296
I1
aI0
aI0
aI0
aI0
aI0
aI0
aI0
aI0
aa(lp1297
I0
aF0.1396201920192497
aF0.1396201920192497
aF0.1396201920192497
aF0.022658655865252272
aF0.1396201920192497
aF0.1396201920192497
aF0.1396201920192497
aF0.1396201920192497
aa(lp1298
I0
aF0.01586043032734008
aF0.19682791393453197
aI0
aI0
aF0.19682791393453197
aF0.19682791393453197
aF0.19682791393453197
aF0.19682791393453197
aa(lp1299
I1
aI0
aI0
aI0
aI0
aI0
aI0
aI0
aI0
aa(lp1300
I0
aI0
aI0
aI1
aI0
aI0
aI0
aI0
aI0
aa(lp1301
I0
aI0
aI0
aI0
aI0
aI0
aI1
aI0
aI0
aa(lp1302
I0
aF0.13822889679788783
aF0.13822889679788783
aF0.032397722414785265
aF0.13822889679788783
aF0.13822889679788783
aF0.13822889679788783
aF0.13822889679788783
aF0.13822889679788783
aa(lp1303
I0
aF0.19395769176926606
aF0.19395769176926606
aI0
aF0.19395769176926606
aF0.19395769176926606
aF0.030211541153669697
aF0.19395769176926606
aI0
aa(lp1304
I0
aI0
aF0.3254031181696633
aI0
aF0.3254031181696633
aF0.02379064549101012
aI0
aF0.3254031181696633
aI0
aa(lp1305
I1
aI0
aI0
aI0
aI0
aI0
aI0
aI0
aI0
aa(lp1306
I0
aI0
aI0
aI0
aI0
aI0
aI0
aI0
aI1
aa(lp1307
I0
aI1
aI0
aI0
aI0
aI0
aI0
aI0
aI0
aa(lp1308
I0
aI0
aI0
aI0
aI1
aI0
aI0
aI0
aI0
aa(lp1309
F0.13697000082206498
aF0.13697000082206498
aF0.041209994245545084
aF0.13697000082206498
aF0.13697000082206498
aI0
aF0.13697000082206498
aF0.13697000082206498
aF0.13697000082206498
aa(lp1310
F0.19136060735605726
aF0.19136060735605726
aI0
aF0.04319696321971368
aF0.19136060735605726
aI0
aF0.19136060735605726
aI0
aF0.19136060735605726
aa(lp1311
F0.3182275627564985
aF0.3182275627564985
aI0
aI0
aF0.045317311730504545
aI0
aI0
aI0
aF0.3182275627564985
aa(lp1312
F0.9524187090179798
aI0
aI0
aI0
aI0
aI0
aI0
aI0
aF0.04758129098202024
aa(lp1313
F0.11953514805156436
aF0.11953514805156436
aF0.11953514805156436
aF0.11953514805156436
aF0.11953514805156436
aF0.04371881558748517
aF0.11953514805156436
aF0.11953514805156436
aF0.11953514805156436
aa(lp1314
F0.15881714395322952
aF0.15881714395322952
aI0
aF0.15881714395322952
aF0.15881714395322952
aI0
aF0.15881714395322952
aF0.04709713628062295
aF0.15881714395322952
aa(lp1315
F0.23704091103408592
aF0.23704091103408592
aI0
aI0
aF0.23704091103408592
aI0
aF0.051836355863656425
aI0
aF0.23704091103408592
aa(lp1316
F0.46978845884633025
aF0.06042308230733939
aI0
aI0
aI0
aI0
aI0
aI0
aF0.46978845884633025
aa(lp1317
F0.09516258196404048
aI0
aI0
aI0
aI0
aI0
aI0
aI0
aI0
aa(lp1318
F0.13822889679788783
aF0.13822889679788783
aI0
aF0.032397722414785265
aF0.13822889679788783
aF0.13822889679788783
aF0.13822889679788783
aF0.13822889679788783
aF0.13822889679788783
aa(lp1319
F0.19395769176926606
aI0
aI0
aI0
aF0.19395769176926606
aF0.19395769176926606
aF0.19395769176926606
aF0.19395769176926606
aF0.030211541153669697
aa(lp1320
F0.3254031181696633
aI0
aI0
aI0
aI0
aF0.3254031181696633
aF0.02379064549101012
aF0.3254031181696633
aI0
aa(lp1321
I0
aI0
aI1
aI0
aI0
aI0
aI0
aI0
aI0
aa(lp1322
I0
aI1
aI0
aI0
aI0
aI0
aI0
aI0
aI0
aa(lp1323
I0
aI0
aI0
aI0
aI1
aI0
aI0
aI0
aI0
aa(lp1324
I0
aI0
aI0
aI0
aI0
aI0
aI0
aI1
aI0
aa(lp1325
I0
aF0.13697000082206498
aF0.13697000082206498
aF0.13697000082206498
aF0.13697000082206498
aF0.13697000082206498
aF0.041209994245545084
aF0.13697000082206498
aF0.13697000082206498
aa(lp1326
I0
aF0.19136060735605726
aF0.04319696321971368
aF0.19136060735605726
aF0.19136060735605726
aF0.19136060735605726
aI0
aF0.19136060735605726
aI0
aa(lp1327
I0
aI0
aI0
aF0.3182275627564985
aF0.3182275627564985
aF0.3182275627564985
aI0
aF0.045317311730504545
aI0
aa(lp1328
I0
aI0
aI0
aI0
aF0.9524187090179798
aF0.04758129098202024
aI0
aI0
aI0
aa(lp1329
I1
aI0
aI0
aI0
aI0
aI0
aI0
aI0
aI0
aa(lp1330
I0
aI0
aI0
aI0
aI0
aI0
aI0
aI0
aI1
aa(lp1331
I0
aI1
aI0
aI0
aI0
aI0
aI0
aI0
aI0
aa(lp1332
I0
aI0
aI0
aI1
aI0
aI0
aI0
aI0
aI0
aa(lp1333
I0
aI0
aI0
aI0
aI1
aI0
aI0
aI0
aI0
aa(lp1334
I0
aI1
aI0
aI0
aI0
aI0
aI0
aI0
aI0
aa(lp1335
I0
aI0
aI0
aI0
aI1
aI0
aI0
aI0
aI0
aa(lp1336
I0
aI0
aI0
aI0
aI0
aI0
aI0
aI0
aI1
aa(lp1337
I0
aI0
aI0
aI0
aI0
aI0
aI0
aI1
aI0
aa(lp1338
F0.12042111175049498
aF0.12042111175049498
aF0.036631105996040074
aF0.12042111175049498
aF0.12042111175049498
aF0.12042111175049498
aF0.12042111175049498
aF0.12042111175049498
aF0.12042111175049498
aa(lp1339
F0.16049567192099326
aI0
aI0
aF0.0370259684740403
aF0.16049567192099326
aF0.16049567192099326
aF0.16049567192099326
aF0.16049567192099326
aF0.16049567192099326
aa(lp1340
F0.2409365376538991
aI0
aI0
aI0
aI0
aF0.03625384938440364
aF0.2409365376538991
aF0.2409365376538991
aF0.2409365376538991
aa(lp1341
F0.48413956967265986
aI0
aI0
aI0
aI0
aI0
aF0.03172086065468016
aF0.48413956967265986
aI0
aa(lp1342
I0
aF0.13697000082206498
aF0.13697000082206498
aF0.041209994245545084
aF0.13697000082206498
aF0.13697000082206498
aF0.13697000082206498
aF0.13697000082206498
aF0.13697000082206498
aa(lp1343
I0
aF0.19136060735605726
aI0
aI0
aF0.19136060735605726
aF0.19136060735605726
aF0.04319696321971368
aF0.19136060735605726
aF0.19136060735605726
aa(lp1344
I0
aF0.3182275627564985
aI0
aI0
aF0.045317311730504545
aF0.3182275627564985
aI0
aI0
aF0.3182275627564985
aa(lp1345
I0
aF0.04758129098202024
aI0
aI0
aI0
aF0.9524187090179798
aI0
aI0
aI0
aa(lp1346
I1
aI0
aI0
aI0
aI0
aI0
aI0
aI0
aI0
aa(lp1347
I0
aI0
aI1
aI0
aI0
aI0
aI0
aI0
aI0
aa(lp1348
I0
aI0
aI0
aI0
aI0
aI0
aI0
aI1
aI0
aa(lp1349
I0
aI0
aI0
aI0
aI0
aI0
aI0
aI0
aI1
aa(lp1350
I0
aI0
aI0
aI0
aI0
aI1
aI0
aI0
aI0
aa(lp1351
I1
aI0
aI0
aI0
aI0
aI0
aI0
aI0
aI0
aa(lp1352
I0
aI0
aI0
aI0
aI0
aI1
aI0
aI0
aI0
aa(lp1353
I0
aI0
aI1
aI0
aI0
aI0
aI0
aI0
aI0
aa(lp1354
I0
aI0
aI0
aI0
aI0
aI0
aI0
aI0
aI1
aa(lp1355
F0.12042111175049498
aF0.12042111175049498
aF0.12042111175049498
aF0.036631105996040074
aF0.12042111175049498
aF0.12042111175049498
aF0.12042111175049498
aF0.12042111175049498
aF0.12042111175049498
aa(lp1356
I0
aF0.16049567192099326
aF0.16049567192099326
aI0
aF0.16049567192099326
aF0.16049567192099326
aF0.0370259684740403
aF0.16049567192099326
aF0.16049567192099326
aa(lp1357
I0
aF0.2409365376538991
aF0.2409365376538991
aI0
aF0.03625384938440364
aI0
aI0
aF0.2409365376538991
aF0.2409365376538991
aa(lp1358
I0
aF0.48413956967265986
aI0
aI0
aI0
aI0
aI0
aF0.03172086065468016
aF0.48413956967265986
aa(lp1359
F0.13697000082206498
aI0
aF0.13697000082206498
aF0.13697000082206498
aF0.13697000082206498
aF0.13697000082206498
aF0.13697000082206498
aF0.13697000082206498
aF0.041209994245545084
aa(lp1360
F0.19136060735605726
aI0
aF0.19136060735605726
aF0.19136060735605726
aF0.04319696321971368
aF0.19136060735605726
aI0
aF0.19136060735605726
aI0
aa(lp1361
F0.3182275627564985
aI0
aF0.3182275627564985
aF0.3182275627564985
aI0
aI0
aI0
aF0.045317311730504545
aI0
aa(lp1362
I0
aI0
aF0.9524187090179798
aF0.04758129098202024
aI0
aI0
aI0
aI0
aI0
aa(lp1363
I0
aI1
aI0
aI0
aI0
aI0
aI0
aI0
aI0
aa(lp1364
I0
aI0
aI0
aI0
aI0
aI0
aI1
aI0
aI0
aa(lp1365
I0
aI0
aI0
aI0
aI0
aI1
aI0
aI0
aI0
aa(lp1366
I1
aI0
aI0
aI0
aI0
aI0
aI0
aI0
aI0
aa(lp1367
I0
aI0
aI1
aI0
aI0
aI0
aI0
aI0
aI0
aa(lp1368
F0.13822889679788783
aI0
aF0.13822889679788783
aF0.13822889679788783
aF0.032397722414785265
aF0.13822889679788783
aF0.13822889679788783
aF0.13822889679788783
aF0.13822889679788783
aa(lp1369
I0
aI0
aF0.030211541153669697
aF0.19395769176926606
aI0
aF0.19395769176926606
aF0.19395769176926606
aF0.19395769176926606
aF0.19395769176926606
aa(lp1370
I0
aI0
aI0
aF0.3254031181696633
aI0
aF0.3254031181696633
aI0
aF0.3254031181696633
aF0.02379064549101012
aa(lp1371
I0
aI1
aI0
aI0
aI0
aI0
aI0
aI0
aI0
aa(lp1372
I1
aI0
aI0
aI0
aI0
aI0
aI0
aI0
aI0
aa(lp1373
I0
aI0
aI0
aI0
aI0
aI0
aI1
aI0
aI0
aa(lp1374
I0
aI0
aI0
aI1
aI0
aI0
aI0
aI0
aI0
aa(lp1375
F0.13822889679788783
aF0.13822889679788783
aF0.13822889679788783
aF0.13822889679788783
aF0.13822889679788783
aF0.13822889679788783
aF0.13822889679788783
aF0.032397722414785265
aI0
aa(lp1376
F0.19395769176926606
aF0.19395769176926606
aI0
aF0.19395769176926606
aF0.19395769176926606
aF0.19395769176926606
aF0.030211541153669697
aI0
aI0
aa(lp1377
F0.3254031181696633
aI0
aI0
aF0.3254031181696633
aF0.02379064549101012
aF0.3254031181696633
aI0
aI0
aI0
aa(lp1378
I0
aI0
aI0
aI0
aI0
aI0
aI0
aI0
aI1
aa(lp1379
I0
aI0
aI1
aI0
aI0
aI0
aI0
aI0
aI0
aa(lp1380
I0
aI1
aI0
aI0
aI0
aI0
aI0
aI0
aI0
aa(lp1381
I1
aI0
aI0
aI0
aI0
aI0
aI0
aI0
aI0
aa(lp1382
I0
aI1
aI0
aI0
aI0
aI0
aI0
aI0
aI0
aa(lp1383
I0
aI0
aI0
aI0
aI0
aI0
aI1
aI0
aI0
aa(lp1384
I1
aI0
aI0
aI0
aI0
aI0
aI0
aI0
aI0
aa(lp1385
I0
aI0
aI0
aI1
aI0
aI0
aI0
aI0
aI0
aa(lp1386
F0.12042111175049498
aF0.12042111175049498
aF0.12042111175049498
aF0.12042111175049498
aF0.12042111175049498
aF0.12042111175049498
aF0.12042111175049498
aF0.036631105996040074
aF0.12042111175049498
aa(lp1387
F0.16049567192099326
aI0
aF0.16049567192099326
aF0.16049567192099326
aF0.16049567192099326
aF0.16049567192099326
aF0.16049567192099326
aI0
aF0.0370259684740403
aa(lp1388
F0.2409365376538991
aI0
aF0.2409365376538991
aF0.2409365376538991
aF0.2409365376538991
aF0.03625384938440364
aI0
aI0
aI0
aa(lp1389
I0
aI0
aF0.48413956967265986
aF0.48413956967265986
aF0.03172086065468016
aI0
aI0
aI0
aI0
aa(lp1390
I0
aI0
aI0
aI0
aI0
aI0
aI0
aI0
aI1
aa(lp1391
I0
aI0
aI0
aI0
aI0
aI0
aI0
aI1
aI0
aa(lp1392
I0
aI1
aI0
aI0
aI0
aI0
aI0
aI0
aI0
aa(lp1393
I0
aI0
aI0
aI0
aI1
aI0
aI0
aI0
aI0
aa(lp1394
F0.12042111175049498
aF0.12042111175049498
aF0.12042111175049498
aF0.12042111175049498
aF0.12042111175049498
aF0.036631105996040074
aF0.12042111175049498
aF0.12042111175049498
aF0.12042111175049498
aa(lp1395
F0.16049567192099326
aF0.16049567192099326
aF0.16049567192099326
aF0.0370259684740403
aF0.16049567192099326
aI0
aF0.16049567192099326
aF0.16049567192099326
aI0
aa(lp1396
F0.2409365376538991
aF0.2409365376538991
aF0.03625384938440364
aI0
aF0.2409365376538991
aI0
aF0.2409365376538991
aI0
aI0
aa(lp1397
F0.48413956967265986
aI0
aI0
aI0
aF0.48413956967265986
aI0
aF0.03172086065468016
aI0
aI0
aa(lp1398
F0.13822889679788783
aF0.13822889679788783
aF0.13822889679788783
aF0.13822889679788783
aI0
aF0.032397722414785265
aF0.13822889679788783
aF0.13822889679788783
aF0.13822889679788783
aa(lp1399
F0.19395769176926606
aF0.030211541153669697
aF0.19395769176926606
aF0.19395769176926606
aI0
aI0
aI0
aF0.19395769176926606
aF0.19395769176926606
aa(lp1400
I0
aI0
aF0.02379064549101012
aF0.3254031181696633
aI0
aI0
aI0
aF0.3254031181696633
aF0.3254031181696633
aa(lp1401
I0
aI0
aI0
aI0
aI1
aI0
aI0
aI0
aI0
aa(lp1402
I0
aI0
aI0
aI0
aI0
aI0
aI1
aI0
aI0
aa(lp1403
I1
aI0
aI0
aI0
aI0
aI0
aI0
aI0
aI0
aa(lp1404
I0
aI0
aI0
aI1
aI0
aI0
aI0
aI0
aI0
aa(lp1405
I0
aI0
aI0
aI0
aI1
aI0
aI0
aI0
aI0
aa(lp1406
I0
aI0
aI1
aI0
aI0
aI0
aI0
aI0
aI0
aa(lp1407
I0
aI0
aI0
aI0
aI0
aI0
aI0
aI0
aI1
aa(lp1408
I1
aI0
aI0
aI0
aI0
aI0
aI0
aI0
aI0
aa(lp1409
F0.12042111175049498
aF0.12042111175049498
aF0.12042111175049498
aF0.12042111175049498
aF0.12042111175049498
aF0.12042111175049498
aF0.12042111175049498
aF0.036631105996040074
aF0.12042111175049498
aa(lp1410
F0.16049567192099326
aF0.16049567192099326
aF0.16049567192099326
aF0.16049567192099326
aI0
aF0.16049567192099326
aF0.0370259684740403
aI0
aF0.16049567192099326
aa(lp1411
F0.2409365376538991
aF0.03625384938440364
aI0
aF0.2409365376538991
aI0
aF0.2409365376538991
aI0
aI0
aF0.2409365376538991
aa(lp1412
F0.48413956967265986
aI0
aI0
aF0.03172086065468016
aI0
aF0.48413956967265986
aI0
aI0
aI0
aa(lp1413
F0.13822889679788783
aF0.13822889679788783
aI0
aF0.13822889679788783
aF0.13822889679788783
aF0.13822889679788783
aF0.13822889679788783
aF0.13822889679788783
aF0.032397722414785265
aa(lp1414
F0.19395769176926606
aF0.030211541153669697
aI0
aF0.19395769176926606
aI0
aF0.19395769176926606
aF0.19395769176926606
aF0.19395769176926606
aI0
aa(lp1415
I0
aI0
aI0
aF0.3254031181696633
aI0
aF0.02379064549101012
aF0.3254031181696633
aF0.3254031181696633
aI0
aa(lp1416
I0
aI0
aI1
aI0
aI0
aI0
aI0
aI0
aI0
aa(lp1417
I0
aI0
aI0
aI0
aI1
aI0
aI0
aI0
aI0
aa(lp1418
I1
aI0
aI0
aI0
aI0
aI0
aI0
aI0
aI0
aa(lp1419
I0
aI0
aI0
aI0
aI0
aI0
aI1
aI0
aI0
aa(lp1420
I0
aF0.1396201920192497
aF0.1396201920192497
aF0.1396201920192497
aF0.1396201920192497
aF0.1396201920192497
aF0.1396201920192497
aF0.1396201920192497
aF0.022658655865252272
aa(lp1421
I0
aF0.19682791393453197
aF0.19682791393453197
aF0.19682791393453197
aF0.01586043032734008
aF0.19682791393453197
aI0
aF0.19682791393453197
aI0
aa(lp1422
I1
aI0
aI0
aI0
aI0
aI0
aI0
aI0
aI0
aa(lp1423
I0
aI0
aI0
aI0
aI0
aI0
aI1
aI0
aI0
aa(lp1424
I0
aI0
aI0
aI1
aI0
aI0
aI0
aI0
aI0
aa(lp1425
I0
aI0
aI0
aI0
aI0
aI0
aI0
aI1
aI0
aa(lp1426
I0
aI1
aI0
aI0
aI0
aI0
aI0
aI0
aI0
aa(lp1427
I0
aI0
aI0
aI0
aI1
aI0
aI0
aI0
aI0
aa(lp1428
F0.12140025306502385
aF0.12140025306502385
aF0.12140025306502385
aF0.12140025306502385
aF0.12140025306502385
aF0.12140025306502385
aF0.028797975479809123
aF0.12140025306502385
aF0.12140025306502385
aa(lp1429
F0.1623507322161424
aF0.1623507322161424
aF0.1623507322161424
aF0.1623507322161424
aF0.1623507322161424
aF0.025895606703145453
aI0
aI0
aF0.1623507322161424
aa(lp1430
F0.24524187090179797
aI0
aF0.019032516392808098
aF0.24524187090179797
aF0.24524187090179797
aI0
aI0
aI0
aF0.24524187090179797
aa(lp1431
F0.13697000082206498
aF0.13697000082206498
aF0.13697000082206498
aF0.13697000082206498
aF0.13697000082206498
aF0.13697000082206498
aF0.041209994245545084
aI0
aF0.13697000082206498
aa(lp1432
F0.19136060735605726
aF0.19136060735605726
aI0
aF0.19136060735605726
aF0.19136060735605726
aF0.04319696321971368
aI0
aI0
aF0.19136060735605726
aa(lp1433
F0.3182275627564985
aF0.045317311730504545
aI0
aF0.3182275627564985
aF0.3182275627564985
aI0
aI0
aI0
aI0
aa(lp1434
F0.04758129098202024
aI0
aI0
aF0.9524187090179798
aI0
aI0
aI0
aI0
aI0
aa(lp1435
F0.11953514805156436
aF0.11953514805156436
aF0.11953514805156436
aF0.11953514805156436
aF0.11953514805156436
aF0.11953514805156436
aF0.11953514805156436
aF0.04371881558748517
aF0.11953514805156436
aa(lp1436
F0.15881714395322952
aF0.15881714395322952
aF0.04709713628062295
aF0.15881714395322952
aF0.15881714395322952
aF0.15881714395322952
aI0
aI0
aF0.15881714395322952
aa(lp1437
F0.23704091103408592
aF0.23704091103408592
aI0
aF0.23704091103408592
aF0.23704091103408592
aI0
aI0
aI0
aF0.051836355863656425
aa(lp1438
F0.46978845884633025
aI0
aI0
aF0.46978845884633025
aF0.06042308230733939
aI0
aI0
aI0
aI0
aa(lp1439
I0
aI0
aI0
aF0.09516258196404048
aI0
aI0
aI0
aI0
aI0
aa(lp1440
F0.13822889679788783
aF0.032397722414785265
aF0.13822889679788783
aF0.13822889679788783
aF0.13822889679788783
aF0.13822889679788783
aF0.13822889679788783
aF0.13822889679788783
aI0
aa(lp1441
F0.19395769176926606
aI0
aF0.19395769176926606
aF0.19395769176926606
aF0.030211541153669697
aF0.19395769176926606
aF0.19395769176926606
aI0
aI0
aa(lp1442
F0.3254031181696633
aI0
aI0
aF0.3254031181696633
aI0
aF0.3254031181696633
aF0.02379064549101012
aI0
aI0
aa(lp1443
I0
aI0
aI0
aI0
aI0
aI0
aI0
aI0
aI1
aa(lp1444
I0
aI0
aI0
aI0
aI0
aI0
aI0
aI1
aI0
aa(lp1445
I0
aI0
aI1
aI0
aI0
aI0
aI0
aI0
aI0
aa(lp1446
I0
aI0
aI0
aI0
aI0
aI1
aI0
aI0
aI0
aa(lp1447
F0.041209994245545084
aF0.13697000082206498
aF0.13697000082206498
aI0
aF0.13697000082206498
aF0.13697000082206498
aF0.13697000082206498
aF0.13697000082206498
aF0.13697000082206498
aa(lp1448
I0
aI0
aF0.19136060735605726
aI0
aF0.19136060735605726
aF0.19136060735605726
aF0.04319696321971368
aF0.19136060735605726
aF0.19136060735605726
aa(lp1449
I0
aI0
aI0
aI0
aF0.3182275627564985
aF0.3182275627564985
aI0
aF0.3182275627564985
aF0.045317311730504545
aa(lp1450
I0
aI0
aI0
aI0
aF0.9524187090179798
aF0.04758129098202024
aI0
aI0
aI0
aa(lp1451
I0
aI0
aI0
aI1
aI0
aI0
aI0
aI0
aI0
aa(lp1452
I0
aI1
aI0
aI0
aI0
aI0
aI0
aI0
aI0
aa(lp1453
I0
aI0
aI1
aI0
aI0
aI0
aI0
aI0
aI0
aa(lp1454
I0
aI0
aI0
aI0
aI0
aI0
aI0
aI1
aI0
aa(lp1455
I0
aI0
aI0
aI0
aI1
aI0
aI0
aI0
aI0
aa(lp1456
F0.13822889679788783
aF0.13822889679788783
aF0.13822889679788783
aF0.13822889679788783
aI0
aF0.13822889679788783
aF0.13822889679788783
aF0.032397722414785265
aF0.13822889679788783
aa(lp1457
F0.19395769176926606
aF0.19395769176926606
aF0.19395769176926606
aI0
aI0
aF0.030211541153669697
aF0.19395769176926606
aI0
aF0.19395769176926606
aa(lp1458
F0.3254031181696633
aF0.02379064549101012
aF0.3254031181696633
aI0
aI0
aI0
aI0
aI0
aF0.3254031181696633
aa(lp1459
I0
aI0
aI0
aI0
aI1
aI0
aI0
aI0
aI0
aa(lp1460
I0
aI0
aI0
aI1
aI0
aI0
aI0
aI0
aI0
aa(lp1461
I0
aI0
aI0
aI0
aI0
aI0
aI1
aI0
aI0
aa(lp1462
I0
aI0
aI1
aI0
aI0
aI0
aI0
aI0
aI0
aa(lp1463
I0
aI0
aI0
aI0
aI0
aI0
aI1
aI0
aI0
aa(lp1464
I0
aI0
aI0
aI0
aI1
aI0
aI0
aI0
aI0
aa(lp1465
I0
aI0
aI1
aI0
aI0
aI0
aI0
aI0
aI0
aa(lp1466
F0.12140025306502385
aF0.12140025306502385
aF0.12140025306502385
aF0.12140025306502385
aF0.12140025306502385
aF0.12140025306502385
aF0.12140025306502385
aF0.12140025306502385
aF0.028797975479809123
aa(lp1467
F0.1623507322161424
aF0.1623507322161424
aF0.1623507322161424
aF0.1623507322161424
aF0.1623507322161424
aF0.1623507322161424
aI0
aF0.025895606703145453
aI0
aa(lp1468
F0.24524187090179797
aF0.24524187090179797
aF0.24524187090179797
aF0.019032516392808098
aI0
aF0.24524187090179797
aI0
aI0
aI0
aa(lp1469
F0.13697000082206498
aF0.13697000082206498
aI0
aF0.13697000082206498
aF0.13697000082206498
aF0.041209994245545084
aF0.13697000082206498
aF0.13697000082206498
aF0.13697000082206498
aa(lp1470
F0.19136060735605726
aF0.19136060735605726
aI0
aI0
aF0.19136060735605726
aI0
aF0.19136060735605726
aF0.19136060735605726
aF0.04319696321971368
aa(lp1471
F0.3182275627564985
aF0.3182275627564985
aI0
aI0
aF0.045317311730504545
aI0
aF0.3182275627564985
aI0
aI0
aa(lp1472
I0
aF0.9524187090179798
aI0
aI0
aI0
aI0
aF0.04758129098202024
aI0
aI0
aa(lp1473
I0
aI0
aI1
aI0
aI0
aI0
aI0
aI0
aI0
aa(lp1474
I0
aI0
aI0
aI1
aI0
aI0
aI0
aI0
aI0
aa(lp1475
I0
aI0
aI0
aI0
aI0
aI0
aI0
aI1
aI0
aa(lp1476
I1
aI0
aI0
aI0
aI0
aI0
aI0
aI0
aI0
aa(lp1477
I0
aI1
aI0
aI0
aI0
aI0
aI0
aI0
aI0
aa(lp1478
F0.13822889679788783
aF0.13822889679788783
aF0.13822889679788783
aF0.13822889679788783
aF0.13822889679788783
aF0.13822889679788783
aI0
aF0.13822889679788783
aF0.032397722414785265
aa(lp1479
F0.19395769176926606
aI0
aF0.19395769176926606
aF0.030211541153669697
aF0.19395769176926606
aF0.19395769176926606
aI0
aF0.19395769176926606
aI0
aa(lp1480
F0.3254031181696633
aI0
aF0.3254031181696633
aI0
aI0
aF0.3254031181696633
aI0
aF0.02379064549101012
aI0
aa(lp1481
I0
aI0
aI0
aI0
aI0
aI0
aI1
aI0
aI0
aa(lp1482
I0
aI1
aI0
aI0
aI0
aI0
aI0
aI0
aI0
aa(lp1483
I0
aI0
aI0
aI0
aI1
aI0
aI0
aI0
aI0
aa(lp1484
I0
aI0
aI1
aI0
aI0
aI0
aI0
aI0
aI0
aa(lp1485
F0.13822889679788783
aF0.13822889679788783
aF0.032397722414785265
aI0
aF0.13822889679788783
aF0.13822889679788783
aF0.13822889679788783
aF0.13822889679788783
aF0.13822889679788783
aa(lp1486
F0.030211541153669697
aF0.19395769176926606
aI0
aI0
aF0.19395769176926606
aI0
aF0.19395769176926606
aF0.19395769176926606
aF0.19395769176926606
aa(lp1487
I0
aF0.3254031181696633
aI0
aI0
aF0.3254031181696633
aI0
aF0.3254031181696633
aF0.02379064549101012
aI0
aa(lp1488
I0
aI0
aI0
aI1
aI0
aI0
aI0
aI0
aI0
aa(lp1489
I0
aI0
aI0
aI0
aI0
aI1
aI0
aI0
aI0
aa(lp1490
I0
aI0
aI0
aI0
aI0
aI0
aI0
aI0
aI1
aa(lp1491
I0
aI0
aI0
aI0
aI1
aI0
aI0
aI0
aI0
aa(lp1492
F0.13697000082206498
aF0.13697000082206498
aF0.13697000082206498
aI0
aF0.13697000082206498
aF0.041209994245545084
aF0.13697000082206498
aF0.13697000082206498
aF0.13697000082206498
aa(lp1493
F0.19136060735605726
aF0.04319696321971368
aF0.19136060735605726
aI0
aI0
aI0
aF0.19136060735605726
aF0.19136060735605726
aF0.19136060735605726
aa(lp1494
F0.3182275627564985
aI0
aI0
aI0
aI0
aI0
aF0.045317311730504545
aF0.3182275627564985
aF0.3182275627564985
aa(lp1495
F0.9524187090179798
aI0
aI0
aI0
aI0
aI0
aI0
aI0
aF0.04758129098202024
aa(lp1496
F0.11953514805156436
aF0.11953514805156436
aF0.11953514805156436
aF0.04371881558748517
aF0.11953514805156436
aF0.11953514805156436
aF0.11953514805156436
aF0.11953514805156436
aF0.11953514805156436
aa(lp1497
F0.15881714395322952
aF0.15881714395322952
aF0.15881714395322952
aI0
aF0.04709713628062295
aI0
aF0.15881714395322952
aF0.15881714395322952
aF0.15881714395322952
aa(lp1498
F0.23704091103408592
aI0
aF0.051836355863656425
aI0
aI0
aI0
aF0.23704091103408592
aF0.23704091103408592
aF0.23704091103408592
aa(lp1499
F0.46978845884633025
aI0
aI0
aI0
aI0
aI0
aI0
aF0.06042308230733939
aF0.46978845884633025
aa(lp1500
F0.09516258196404048
aI0
aI0
aI0
aI0
aI0
aI0
aI0
aI0
aa(lp1501
F0.13697000082206498
aF0.13697000082206498
aF0.13697000082206498
aI0
aF0.041209994245545084
aF0.13697000082206498
aF0.13697000082206498
aF0.13697000082206498
aF0.13697000082206498
aa(lp1502
F0.19136060735605726
aF0.19136060735605726
aF0.19136060735605726
aI0
aI0
aF0.19136060735605726
aF0.04319696321971368
aI0
aF0.19136060735605726
aa(lp1503
F0.045317311730504545
aF0.3182275627564985
aF0.3182275627564985
aI0
aI0
aF0.3182275627564985
aI0
aI0
aI0
aa(lp1504
I0
aF0.9524187090179798
aI0
aI0
aI0
aF0.04758129098202024
aI0
aI0
aI0
aa(lp1505
F0.11953514805156436
aF0.11953514805156436
aF0.11953514805156436
aF0.04371881558748517
aF0.11953514805156436
aF0.11953514805156436
aF0.11953514805156436
aF0.11953514805156436
aF0.11953514805156436
aa(lp1506
F0.15881714395322952
aF0.15881714395322952
aF0.15881714395322952
aI0
aI0
aF0.15881714395322952
aF0.15881714395322952
aF0.04709713628062295
aF0.15881714395322952
aa(lp1507
F0.23704091103408592
aF0.23704091103408592
aF0.23704091103408592
aI0
aI0
aF0.23704091103408592
aI0
aI0
aF0.051836355863656425
aa(lp1508
I0
aF0.46978845884633025
aF0.06042308230733939
aI0
aI0
aF0.46978845884633025
aI0
aI0
aI0
aa(lp1509
I0
aF0.09516258196404048
aI0
aI0
aI0
aI0
aI0
aI0
aI0
aa(lp1510
I0
aI0
aI0
aI0
aI0
aI0
aI0
aI1
aI0
aa(lp1511
I1
aI0
aI0
aI0
aI0
aI0
aI0
aI0
aI0
aa(lp1512
I0
aI0
aI1
aI0
aI0
aI0
aI0
aI0
aI0
aa(lp1513
I0
aI1
aI0
aI0
aI0
aI0
aI0
aI0
aI0
aa(lp1514
F0.12042111175049498
aF0.12042111175049498
aF0.12042111175049498
aF0.12042111175049498
aF0.036631105996040074
aF0.12042111175049498
aF0.12042111175049498
aF0.12042111175049498
aF0.12042111175049498
aa(lp1515
F0.16049567192099326
aF0.16049567192099326
aF0.16049567192099326
aF0.16049567192099326
aI0
aF0.16049567192099326
aF0.0370259684740403
aI0
aF0.16049567192099326
aa(lp1516
I0
aF0.2409365376538991
aF0.2409365376538991
aF0.2409365376538991
aI0
aF0.2409365376538991
aI0
aI0
aF0.03625384938440364
aa(lp1517
I0
aF0.48413956967265986
aI0
aF0.48413956967265986
aI0
aF0.03172086065468016
aI0
aI0
aI0
aa(lp1518
I0
aI0
aI0
aI1
aI0
aI0
aI0
aI0
aI0
aa(lp1519
I0
aI0
aI0
aI0
aI0
aI1
aI0
aI0
aI0
aa(lp1520
I0
aI0
aI0
aI0
aI1
aI0
aI0
aI0
aI0
aa(lp1521
F0.12140025306502385
aF0.12140025306502385
aF0.12140025306502385
aF0.12140025306502385
aF0.12140025306502385
aF0.12140025306502385
aF0.12140025306502385
aF0.028797975479809123
aF0.12140025306502385
aa(lp1522
F0.1623507322161424
aF0.025895606703145453
aF0.1623507322161424
aI0
aF0.1623507322161424
aF0.1623507322161424
aF0.1623507322161424
aI0
aF0.1623507322161424
aa(lp1523
F0.24524187090179797
aI0
aF0.24524187090179797
aI0
aF0.24524187090179797
aI0
aF0.24524187090179797
aI0
aF0.019032516392808098
aa(lp1524
F0.13697000082206498
aF0.13697000082206498
aI0
aF0.041209994245545084
aF0.13697000082206498
aF0.13697000082206498
aF0.13697000082206498
aF0.13697000082206498
aF0.13697000082206498
aa(lp1525
F0.04319696321971368
aI0
aI0
aI0
aF0.19136060735605726
aF0.19136060735605726
aF0.19136060735605726
aF0.19136060735605726
aF0.19136060735605726
aa(lp1526
I0
aI0
aI0
aI0
aI0
aF0.3182275627564985
aF0.3182275627564985
aF0.045317311730504545
aF0.3182275627564985
aa(lp1527
I0
aI0
aI0
aI0
aI0
aF0.04758129098202024
aF0.9524187090179798
aI0
aI0
aa(lp1528
I0
aI0
aI1
aI0
aI0
aI0
aI0
aI0
aI0
aa(lp1529
I0
aI1
aI0
aI0
aI0
aI0
aI0
aI0
aI0
aa(lp1530
I0
aI0
aI0
aI0
aI1
aI0
aI0
aI0
aI0
aa(lp1531
I0
aI0
aI0
aI0
aI0
aI0
aI0
aI0
aI1
aa(lp1532
I0
aI0
aI0
aI0
aI0
aI0
aI1
aI0
aI0
aa(lp1533
F0.13822889679788783
aF0.13822889679788783
aF0.13822889679788783
aF0.13822889679788783
aI0
aF0.13822889679788783
aF0.13822889679788783
aF0.13822889679788783
aF0.032397722414785265
aa(lp1534
F0.19395769176926606
aF0.19395769176926606
aF0.19395769176926606
aI0
aI0
aF0.030211541153669697
aF0.19395769176926606
aF0.19395769176926606
aI0
aa(lp1535
F0.3254031181696633
aF0.3254031181696633
aF0.3254031181696633
aI0
aI0
aI0
aF0.02379064549101012
aI0
aI0
aa(lp1536
I0
aI0
aI0
aI0
aI1
aI0
aI0
aI0
aI0
aa(lp1537
I0
aI0
aI0
aI1
aI0
aI0
aI0
aI0
aI0
aa(lp1538
I0
aI0
aI0
aI0
aI0
aI0
aI0
aI1
aI0
aa(lp1539
I0
aI1
aI0
aI0
aI0
aI0
aI0
aI0
aI0
aa(lp1540
F0.13822889679788783
aF0.13822889679788783
aI0
aF0.13822889679788783
aF0.13822889679788783
aF0.032397722414785265
aF0.13822889679788783
aF0.13822889679788783
aF0.13822889679788783
aa(lp1541
F0.19395769176926606
aI0
aI0
aF0.19395769176926606
aF0.19395769176926606
aI0
aF0.030211541153669697
aF0.19395769176926606
aF0.19395769176926606
aa(lp1542
F0.3254031181696633
aI0
aI0
aF0.3254031181696633
aI0
aI0
aI0
aF0.02379064549101012
aF0.3254031181696633
aa(lp1543
I0
aI0
aI1
aI0
aI0
aI0
aI0
aI0
aI0
aa(lp1544
I0
aI1
aI0
aI0
aI0
aI0
aI0
aI0
aI0
aa(lp1545
I0
aI0
aI0
aI0
aI1
aI0
aI0
aI0
aI0
aa(lp1546
I1
aI0
aI0
aI0
aI0
aI0
aI0
aI0
aI0
aa(lp1547
I0
aF0.13697000082206498
aF0.13697000082206498
aF0.13697000082206498
aF0.13697000082206498
aF0.041209994245545084
aF0.13697000082206498
aF0.13697000082206498
aF0.13697000082206498
aa(lp1548
I0
aF0.19136060735605726
aF0.19136060735605726
aF0.19136060735605726
aF0.04319696321971368
aI0
aF0.19136060735605726
aI0
aF0.19136060735605726
aa(lp1549
I0
aF0.3182275627564985
aI0
aF0.3182275627564985
aI0
aI0
aF0.045317311730504545
aI0
aF0.3182275627564985
aa(lp1550
I0
aF0.9524187090179798
aI0
aI0
aI0
aI0
aI0
aI0
aF0.04758129098202024
aa(lp1551
I1
aI0
aI0
aI0
aI0
aI0
aI0
aI0
aI0
aa(lp1552
I0
aI0
aI0
aI0
aI0
aI0
aI0
aI1
aI0
aa(lp1553
I0
aI0
aI1
aI0
aI0
aI0
aI0
aI0
aI0
aa(lp1554
I0
aI0
aI0
aI1
aI0
aI0
aI0
aI0
aI0
aa(lp1555
I0
aI1
aI0
aI0
aI0
aI0
aI0
aI0
aI0
aa(lp1556
I0
aI1
aI0
aI0
aI0
aI0
aI0
aI0
aI0
aa(lp1557
I0
aI0
aI0
aI0
aI0
aI0
aI0
aI1
aI0
aa(lp1558
I0
aI0
aI0
aI0
aI1
aI0
aI0
aI0
aI0
aa(lp1559
F0.12140025306502385
aF0.12140025306502385
aF0.12140025306502385
aF0.12140025306502385
aF0.12140025306502385
aF0.12140025306502385
aF0.12140025306502385
aF0.12140025306502385
aF0.028797975479809123
aa(lp1560
F0.1623507322161424
aI0
aF0.1623507322161424
aF0.1623507322161424
aF0.1623507322161424
aF0.025895606703145453
aF0.1623507322161424
aF0.1623507322161424
aI0
aa(lp1561
F0.019032516392808098
aI0
aF0.24524187090179797
aF0.24524187090179797
aF0.24524187090179797
aI0
aF0.24524187090179797
aI0
aI0
aa(lp1562
F0.041209994245545084
aF0.13697000082206498
aF0.13697000082206498
aF0.13697000082206498
aF0.13697000082206498
aF0.13697000082206498
aF0.13697000082206498
aF0.13697000082206498
aI0
aa(lp1563
I0
aF0.19136060735605726
aF0.04319696321971368
aF0.19136060735605726
aF0.19136060735605726
aF0.19136060735605726
aI0
aF0.19136060735605726
aI0
aa(lp1564
I0
aF0.3182275627564985
aI0
aF0.3182275627564985
aI0
aF0.045317311730504545
aI0
aF0.3182275627564985
aI0
aa(lp1565
I0
aI0
aI0
aF0.9524187090179798
aI0
aI0
aI0
aF0.04758129098202024
aI0
aa(lp1566
F0.11953514805156436
aF0.11953514805156436
aF0.11953514805156436
aF0.11953514805156436
aF0.11953514805156436
aF0.11953514805156436
aF0.11953514805156436
aF0.11953514805156436
aF0.04371881558748517
aa(lp1567
I0
aF0.15881714395322952
aF0.15881714395322952
aF0.15881714395322952
aF0.15881714395322952
aF0.15881714395322952
aF0.04709713628062295
aF0.15881714395322952
aI0
aa(lp1568
I0
aF0.23704091103408592
aI0
aF0.23704091103408592
aF0.051836355863656425
aF0.23704091103408592
aI0
aF0.23704091103408592
aI0
aa(lp1569
I0
aF0.06042308230733939
aI0
aF0.46978845884633025
aI0
aI0
aI0
aF0.46978845884633025
aI0
aa(lp1570
I0
aI0
aI0
aF0.09516258196404048
aI0
aI0
aI0
aI0
aI0
aa(lp1571
F0.13822889679788783
aF0.13822889679788783
aF0.13822889679788783
aF0.13822889679788783
aF0.13822889679788783
aF0.13822889679788783
aI0
aF0.032397722414785265
aF0.13822889679788783
aa(lp1572
F0.19395769176926606
aF0.19395769176926606
aI0
aF0.19395769176926606
aF0.19395769176926606
aF0.19395769176926606
aI0
aI0
aF0.030211541153669697
aa(lp1573
I0
aF0.3254031181696633
aI0
aF0.02379064549101012
aF0.3254031181696633
aF0.3254031181696633
aI0
aI0
aI0
aa(lp1574
I0
aI0
aI0
aI0
aI0
aI0
aI1
aI0
aI0
aa(lp1575
I0
aI0
aI1
aI0
aI0
aI0
aI0
aI0
aI0
aa(lp1576
I1
aI0
aI0
aI0
aI0
aI0
aI0
aI0
aI0
aa(lp1577
I0
aI0
aI0
aI0
aI1
aI0
aI0
aI0
aI0
aa(lp1578
I0
aI0
aI0
aI0
aI0
aI0
aI0
aI0
aI1
aa(lp1579
I0
aI0
aI1
aI0
aI0
aI0
aI0
aI0
aI0
aa(lp1580
I0
aI0
aI0
aI0
aI0
aI1
aI0
aI0
aI0
aa(lp1581
F0.12140025306502385
aF0.12140025306502385
aF0.12140025306502385
aF0.028797975479809123
aF0.12140025306502385
aF0.12140025306502385
aF0.12140025306502385
aF0.12140025306502385
aF0.12140025306502385
aa(lp1582
F0.1623507322161424
aF0.1623507322161424
aF0.1623507322161424
aI0
aF0.1623507322161424
aF0.1623507322161424
aF0.1623507322161424
aF0.025895606703145453
aI0
aa(lp1583
F0.24524187090179797
aF0.24524187090179797
aI0
aI0
aF0.019032516392808098
aF0.24524187090179797
aF0.24524187090179797
aI0
aI0
aa(lp1584
I1
aI0
aI0
aI0
aI0
aI0
aI0
aI0
aI0
aa(lp1585
I0
aI0
aI0
aI0
aI0
aI1
aI0
aI0
aI0
aa(lp1586
I0
aI0
aI0
aI0
aI1
aI0
aI0
aI0
aI0
aa(lp1587
I0
aI0
aI0
aI0
aI0
aI0
aI0
aI0
aI1
aa(lp1588
F0.12042111175049498
aF0.12042111175049498
aF0.12042111175049498
aF0.12042111175049498
aF0.12042111175049498
aF0.12042111175049498
aF0.12042111175049498
aF0.036631105996040074
aF0.12042111175049498
aa(lp1589
I0
aF0.16049567192099326
aF0.16049567192099326
aF0.16049567192099326
aF0.16049567192099326
aF0.16049567192099326
aF0.0370259684740403
aI0
aF0.16049567192099326
aa(lp1590
I0
aF0.2409365376538991
aF0.2409365376538991
aF0.03625384938440364
aF0.2409365376538991
aI0
aI0
aI0
aF0.2409365376538991
aa(lp1591
I0
aF0.03172086065468016
aF0.48413956967265986
aI0
aI0
aI0
aI0
aI0
aF0.48413956967265986
aa(lp1592
F0.13697000082206498
aF0.13697000082206498
aF0.13697000082206498
aF0.041209994245545084
aF0.13697000082206498
aF0.13697000082206498
aF0.13697000082206498
aI0
aF0.13697000082206498
aa(lp1593
F0.19136060735605726
aI0
aF0.19136060735605726
aI0
aF0.19136060735605726
aF0.19136060735605726
aF0.19136060735605726
aI0
aF0.04319696321971368
aa(lp1594
F0.3182275627564985
aI0
aF0.3182275627564985
aI0
aF0.045317311730504545
aI0
aF0.3182275627564985
aI0
aI0
aa(lp1595
F0.9524187090179798
aI0
aI0
aI0
aI0
aI0
aF0.04758129098202024
aI0
aI0
aa(lp1596
I0
aI0
aI0
aI0
aI0
aI0
aI0
aI1
aI0
aa(lp1597
I0
aI1
aI0
aI0
aI0
aI0
aI0
aI0
aI0
aa(lp1598
I0
aI0
aI0
aI0
aI0
aI1
aI0
aI0
aI0
aa(lp1599
I0
aI0
aI1
aI0
aI0
aI0
aI0
aI0
aI0
aa(lp1600
I1
aI0
aI0
aI0
aI0
aI0
aI0
aI0
aI0
aa(lp1601
I0
aI0
aI0
aI0
aI0
aI0
aI1
aI0
aI0
aa(lp1602
I0
aI0
aI1
aI0
aI0
aI0
aI0
aI0
aI0
aa(lp1603
I0
aI0
aI0
aI0
aI1
aI0
aI0
aI0
aI0
aa(lp1604
F0.12140025306502385
aF0.12140025306502385
aF0.12140025306502385
aF0.12140025306502385
aF0.12140025306502385
aF0.028797975479809123
aF0.12140025306502385
aF0.12140025306502385
aF0.12140025306502385
aa(lp1605
F0.025895606703145453
aF0.1623507322161424
aF0.1623507322161424
aF0.1623507322161424
aF0.1623507322161424
aI0
aI0
aF0.1623507322161424
aF0.1623507322161424
aa(lp1606
I0
aF0.24524187090179797
aI0
aF0.24524187090179797
aF0.24524187090179797
aI0
aI0
aF0.24524187090179797
aF0.019032516392808098
aa(lp1607
F0.13697000082206498
aF0.041209994245545084
aF0.13697000082206498
aI0
aF0.13697000082206498
aF0.13697000082206498
aF0.13697000082206498
aF0.13697000082206498
aF0.13697000082206498
aa(lp1608
F0.19136060735605726
aI0
aF0.19136060735605726
aI0
aF0.19136060735605726
aF0.19136060735605726
aF0.04319696321971368
aI0
aF0.19136060735605726
aa(lp1609
I0
aI0
aF0.3182275627564985
aI0
aF0.3182275627564985
aF0.045317311730504545
aI0
aI0
aF0.3182275627564985
aa(lp1610
I0
aI0
aI0
aI0
aF0.04758129098202024
aI0
aI0
aI0
aF0.9524187090179798
aa(lp1611
F0.11953514805156436
aF0.11953514805156436
aF0.11953514805156436
aF0.04371881558748517
aF0.11953514805156436
aF0.11953514805156436
aF0.11953514805156436
aF0.11953514805156436
aF0.11953514805156436
aa(lp1612
F0.15881714395322952
aI0
aF0.15881714395322952
aI0
aF0.15881714395322952
aF0.15881714395322952
aF0.15881714395322952
aF0.04709713628062295
aF0.15881714395322952
aa(lp1613
F0.051836355863656425
aI0
aF0.23704091103408592
aI0
aF0.23704091103408592
aF0.23704091103408592
aI0
aI0
aF0.23704091103408592
aa(lp1614
I0
aI0
aF0.06042308230733939
aI0
aF0.46978845884633025
aI0
aI0
aI0
aF0.46978845884633025
aa(lp1615
I0
aI0
aI0
aI0
aI0
aI0
aI0
aI0
aF0.09516258196404048
aa.