(lp0
(lp1
F0.13697000082206498
aF0.13697000082206498
aF0.13697000082206498
aF0.13697000082206498
aI0
aF0.13697000082206498
aF0.041209994245545084
aF0.13697000082206498
aF0.13697000082206498
aa(lp2
F0.19136060735605726
aF0.19136060735605726
aI0
aF0.19136060735605726
aI0
aF0.19136060735605726
aI0
aF0.19136060735605726
aF0.04319696321971368
aa(lp3
I0
aF0.3182275627564985
aI0
aF0.045317311730504545
aI0
aF0.3182275627564985
aI0
aF0.3182275627564985
aI0
aa(lp4
I0
aF0.9524187090179798
aI0
aI0
aI0
aF0.04758129098202024
aI0
aI0
aI0
aa(lp5
I0
aI0
aI0
aI0
aI1
aI0
aI0
aI0
aI0
aa(lp6
I0
aI0
aI1
aI0
aI0
aI0
aI0
aI0
aI0
aa(lp7
I1
aI0
aI0
aI0
aI0
aI0
aI0
aI0
aI0
aa(lp8
I0
aI0
aI0
aI0
aI0
aI0
aI0
aI1
aI0
aa(lp9
I0
aI1
aI0
aI0
aI0
aI0
aI0
aI0
aI0
aa(lp10
F0.13697000082206498
aF0.13697000082206498
aF0.13697000082206498
aF0.13697000082206498
aI0
aF0.041209994245545084
aF0.13697000082206498
aF0.13697000082206498
aF0.13697000082206498
aa(lp11
I0
aF0.04319696321971368
aF0.19136060735605726
aF0.19136060735605726
aI0
aI0
aF0.19136060735605726
aF0.19136060735605726
aF0.19136060735605726
aa(lp12
I0
aI0
aF0.3182275627564985
aF0.3182275627564985
aI0
aI0
aF0.3182275627564985
aI0
aF0.045317311730504545
aa(lp13
I0
aI0
aI0
aF0.9524187090179798
aI0
aI0
aF0.04758129098202024
aI0
aI0
aa(lp14
F0.11953514805156436
aF0.11953514805156436
aF0.11953514805156436
aF0.11953514805156436
aF0.04371881558748517
aF0.11953514805156436
aF0.11953514805156436
aF0.11953514805156436
aF0.11953514805156436
aa(lp15
F0.04709713628062295
aF0.15881714395322952
aF0.15881714395322952
aF0.15881714395322952
aI0
aI0
aF0.15881714395322952
aF0.15881714395322952
aF0.15881714395322952
aa(lp16
I0
aI0
aF0.23704091103408592
aF0.23704091103408592
aI0
aI0
aF0.23704091103408592
aF0.051836355863656425
aF0.23704091103408592
aa(lp17
I0
aI0
aF0.06042308230733939
aF0.46978845884633025
aI0
aI0
aF0.46978845884633025
aI0
aI0
aa(lp18
I0
aI0
aI0
aF0.09516258196404048
aI0
aI0
aI0
aI0
aI0
aa(lp19
I0
aI0
aI0
aI0
aI0
aI0
aI0
aI0
aI1
aa(lp20
I0
aI1
aI0
aI0
aI0
aI0
aI0
aI0
aI0
aa(lp21
I0
aI0
aI0
aI0
aI1
aI0
aI0
aI0
aI0
aa(lp22
I1
aI0
aI0
aI0
aI0
aI0
aI0
aI0
aI0
aa(lp23
F0.12042111175049498
aF0.12042111175049498
aF0.036631105996040074
aF0.12042111175049498
aF0.12042111175049498
aF0.12042111175049498
aF0.12042111175049498
aF0.12042111175049498
aF0.12042111175049498
aa(lp24
F0.16049567192099326
aF0.16049567192099326
aI0
aF0.0370259684740403
aF0.16049567192099326
aF0.16049567192099326
aF0.16049567192099326
aF0.16049567192099326
aI0
aa(lp25
F0.2409365376538991
aI0
aI0
aI0
aF0.2409365376538991
aF0.03625384938440364
aF0.2409365376538991
aF0.2409365376538991
aI0
aa(lp26
F0.48413956967265986
aI0
aI0
aI0
aI0
aI0
aF0.03172086065468016
aF0.48413956967265986
aI0
aa(lp27
I0
aI0
aI0
aI0
aI1
aI0
aI0
aI0
aI0
aa(lp28
I0
aI0
aI0
aI1
aI0
aI0
aI0
aI0
aI0
aa(lp29
I0
aI0
aI0
aI0
aI0
aI1
aI0
aI0
aI0
aa(lp30
F0.028797975479809123
aF0.12140025306502385
aF0.12140025306502385
aF0.12140025306502385
aF0.12140025306502385
aF0.12140025306502385
aF0.12140025306502385
aF0.12140025306502385
aF0.12140025306502385
aa(lp31
I0
aF0.1623507322161424
aF0.1623507322161424
aF0.1623507322161424
aI0
aF0.1623507322161424
aF0.1623507322161424
aF0.025895606703145453
aF0.1623507322161424
aa(lp32
I0
aF0.24524187090179797
aF0.019032516392808098
aI0
aI0
aF0.24524187090179797
aF0.24524187090179797
aI0
aF0.24524187090179797
aa(lp33
I0
aI0
aI0
aI0
aI0
aI0
aI1
aI0
aI0
aa(lp34
I0
aI1
aI0
aI0
aI0
aI0
aI0
aI0
aI0
aa(lp35
I0
aI0
aI0
aI0
aI1
aI0
aI0
aI0
aI0
aa(lp36
I0
aI0
aI1
aI0
aI0
aI0
aI0
aI0
aI0
aa(lp37
F0.12042111175049498
aF0.12042111175049498
aF0.12042111175049498
aF0.12042111175049498
aF0.12042111175049498
aF0.12042111175049498
aF0.12042111175049498
aF0.12042111175049498
aF0.036631105996040074
aa(lp38
F0.0370259684740403
aF0.16049567192099326
aF0.16049567192099326
aF0.16049567192099326
aF0.16049567192099326
aF0.16049567192099326
aI0
aF0.16049567192099326
aI0
aa(lp39
I0
aI0
aF0.2409365376538991
aF0.2409365376538991
aF0.2409365376538991
aF0.03625384938440364
aI0
aF0.2409365376538991
aI0
aa(lp40
I0
aI0
aF0.48413956967265986
aF0.03172086065468016
aI0
aI0
aI0
aF0.48413956967265986
aI0
aa(lp41
F0.13822889679788783
aF0.13822889679788783
aF0.13822889679788783
aF0.13822889679788783
aF0.13822889679788783
aI0
aF0.13822889679788783
aF0.032397722414785265
aF0.13822889679788783
aa(lp42
F0.19395769176926606
aF0.19395769176926606
aI0
aF0.030211541153669697
aF0.19395769176926606
aI0
aF0.19395769176926606
aI0
aF0.19395769176926606
aa(lp43
F0.02379064549101012
aF0.3254031181696633
aI0
aI0
aF0.3254031181696633
aI0
aI0
aI0
aF0.3254031181696633
aa(lp44
I0
aI0
aI0
aI0
aI0
aI1
aI0
aI0
aI0
aa(lp45
I0
aI0
aI1
aI0
aI0
aI0
aI0
aI0
aI0
aa(lp46
I0
aI0
aI0
aI0
aI0
aI0
aI1
aI0
aI0
aa(lp47
I0
aI0
aI0
aI0
aI1
aI0
aI0
aI0
aI0
aa(lp48
I0
aI0
aI0
aI0
aI0
aI0
aI0
aI1
aI0
aa(lp49
I0
aI0
aI0
aI1
aI0
aI0
aI0
aI0
aI0
aa(lp50
I0
aI0
aI0
aI0
aI1
aI0
aI0
aI0
aI0
aa(lp51
I0
aI0
aI0
aI0
aI0
aI1
aI0
aI0
aI0
aa(lp52
F0.12042111175049498
aF0.036631105996040074
aF0.12042111175049498
aF0.12042111175049498
aF0.12042111175049498
aF0.12042111175049498
aF0.12042111175049498
aF0.12042111175049498
aF0.12042111175049498
aa(lp53
F0.16049567192099326
aI0
aF0.16049567192099326
aF0.16049567192099326
aF0.16049567192099326
aF0.16049567192099326
aF0.16049567192099326
aI0
aF0.0370259684740403
aa(lp54
F0.2409365376538991
aI0
aF0.2409365376538991
aI0
aF0.2409365376538991
aF0.2409365376538991
aF0.03625384938440364
aI0
aI0
aa(lp55
F0.48413956967265986
aI0
aF0.03172086065468016
aI0
aI0
aF0.48413956967265986
aI0
aI0
aI0
aa(lp56
I0
aI0
aI1
aI0
aI0
aI0
aI0
aI0
aI0
aa(lp57
I0
aI0
aI0
aI0
aI0
aI0
aI0
aI0
aI1
aa(lp58
I0
aI0
aI0
aI0
aI0
aI1
aI0
aI0
aI0
aa(lp59
F0.12140025306502385
aF0.028797975479809123
aF0.12140025306502385
aF0.12140025306502385
aF0.12140025306502385
aF0.12140025306502385
aF0.12140025306502385
aF0.12140025306502385
aF0.12140025306502385
aa(lp60
F0.1623507322161424
aI0
aI0
aF0.1623507322161424
aF0.1623507322161424
aF0.1623507322161424
aF0.025895606703145453
aF0.1623507322161424
aF0.1623507322161424
aa(lp61
F0.019032516392808098
aI0
aI0
aF0.24524187090179797
aF0.24524187090179797
aF0.24524187090179797
aI0
aF0.24524187090179797
aI0
aa(lp62
F0.041209994245545084
aI0
aF0.13697000082206498
aF0.13697000082206498
aF0.13697000082206498
aF0.13697000082206498
aF0.13697000082206498
aF0.13697000082206498
aF0.13697000082206498
aa(lp63
I0
aI0
aF0.04319696321971368
aF0.19136060735605726
aF0.19136060735605726
aF0.19136060735605726
aF0.19136060735605726
aF0.19136060735605726
aI0
aa(lp64
I0
aI0
aI0
aF0.3182275627564985
aF0.3182275627564985
aI0
aF0.045317311730504545
aF0.3182275627564985
aI0
aa(lp65
I0
aI0
aI0
aF0.9524187090179798
aI0
aI0
aI0
aF0.04758129098202024
aI0
aa(lp66
I0
aI1
aI0
aI0
aI0
aI0
aI0
aI0
aI0
aa(lp67
I0
aI0
aI0
aI0
aI0
aI0
aI0
aI0
aI1
aa(lp68
I0
aI0
aI0
aI0
aI0
aI1
aI0
aI0
aI0
aa(lp69
I0
aI0
aI0
aI0
aI1
aI0
aI0
aI0
aI0
aa(lp70
I0
aI0
aI0
aI1
aI0
aI0
aI0
aI0
aI0
aa(lp71
I0
aF0.13697000082206498
aF0.13697000082206498
aF0.13697000082206498
aF0.13697000082206498
aF0.13697000082206498
aF0.13697000082206498
aF0.041209994245545084
aF0.13697000082206498
aa(lp72
I0
aF0.19136060735605726
aF0.19136060735605726
aF0.19136060735605726
aF0.04319696321971368
aF0.19136060735605726
aI0
aI0
aF0.19136060735605726
aa(lp73
I0
aF0.3182275627564985
aF0.045317311730504545
aF0.3182275627564985
aI0
aF0.3182275627564985
aI0
aI0
aI0
aa(lp74
I0
aI0
aI0
aF0.9524187090179798
aI0
aF0.04758129098202024
aI0
aI0
aI0
aa(lp75
I1
aI0
aI0
aI0
aI0
aI0
aI0
aI0
aI0
aa(lp76
I0
aI0
aI0
aI0
aI0
aI0
aI1
aI0
aI0
aa(lp77
I0
aI0
aI0
aI0
aI0
aI0
aI0
aI0
aI1
aa(lp78
I0
aI1
aI0
aI0
aI0
aI0
aI0
aI0
aI0
aa(lp79
I0
aI0
aI0
aI1
aI0
aI0
aI0
aI0
aI0
aa(lp80
F0.13697000082206498
aI0
aF0.13697000082206498
aF0.13697000082206498
aF0.13697000082206498
aF0.13697000082206498
aF0.13697000082206498
aF0.041209994245545084
aF0.13697000082206498
aa(lp81
I0
aI0
aF0.19136060735605726
aF0.04319696321971368
aF0.19136060735605726
aF0.19136060735605726
aF0.19136060735605726
aI0
aF0.19136060735605726
aa(lp82
I0
aI0
aF0.3182275627564985
aI0
aF0.045317311730504545
aF0.3182275627564985
aI0
aI0
aF0.3182275627564985
aa(lp83
I0
aI0
aF0.04758129098202024
aI0
aI0
aF0.9524187090179798
aI0
aI0
aI0
aa(lp84
F0.11953514805156436
aF0.04371881558748517
aF0.11953514805156436
aF0.11953514805156436
aF0.11953514805156436
aF0.11953514805156436
aF0.11953514805156436
aF0.11953514805156436
aF0.11953514805156436
aa(lp85
F0.04709713628062295
aI0
aF0.15881714395322952
aF0.15881714395322952
aF0.15881714395322952
aF0.15881714395322952
aF0.15881714395322952
aI0
aF0.15881714395322952
aa(lp86
I0
aI0
aF0.23704091103408592
aI0
aF0.23704091103408592
aF0.23704091103408592
aF0.051836355863656425
aI0
aF0.23704091103408592
aa(lp87
I0
aI0
aF0.46978845884633025
aI0
aI0
aF0.46978845884633025
aI0
aI0
aF0.06042308230733939
aa(lp88
I0
aI0
aI0
aI0
aI0
aF0.09516258196404048
aI0
aI0
aI0
aa(lp89
F0.13697000082206498
aF0.13697000082206498
aF0.041209994245545084
aF0.13697000082206498
aF0.13697000082206498
aI0
aF0.13697000082206498
aF0.13697000082206498
aF0.13697000082206498
aa(lp90
F0.19136060735605726
aF0.19136060735605726
aI0
aI0
aF0.04319696321971368
aI0
aF0.19136060735605726
aF0.19136060735605726
aF0.19136060735605726
aa(lp91
F0.3182275627564985
aI0
aI0
aI0
aI0
aI0
aF0.3182275627564985
aF0.3182275627564985
aF0.045317311730504545
aa(lp92
F0.9524187090179798
aI0
aI0
aI0
aI0
aI0
aI0
aF0.04758129098202024
aI0
aa(lp93
I0
aI0
aI0
aI0
aI0
aI1
aI0
aI0
aI0
aa(lp94
I0
aI0
aI0
aI1
aI0
aI0
aI0
aI0
aI0
aa(lp95
I0
aI1
aI0
aI0
aI0
aI0
aI0
aI0
aI0
aa(lp96
I0
aI0
aI0
aI0
aI0
aI0
aI1
aI0
aI0
aa(lp97
I1
aI0
aI0
aI0
aI0
aI0
aI0
aI0
aI0
aa(lp98
I0
aF0.1396201920192497
aF0.1396201920192497
aF0.1396201920192497
aF0.1396201920192497
aF0.1396201920192497
aF0.1396201920192497
aF0.022658655865252272
aF0.1396201920192497
aa(lp99
I0
aI0
aF0.19682791393453197
aF0.19682791393453197
aF0.19682791393453197
aF0.01586043032734008
aF0.19682791393453197
aI0
aF0.19682791393453197
aa(lp100
I1
aI0
aI0
aI0
aI0
aI0
aI0
aI0
aI0
aa(lp101
I0
aI1
aI0
aI0
aI0
aI0
aI0
aI0
aI0
aa(lp102
I0
aI0
aI1
aI0
aI0
aI0
aI0
aI0
aI0
aa(lp103
F0.13822889679788783
aF0.032397722414785265
aF0.13822889679788783
aF0.13822889679788783
aF0.13822889679788783
aF0.13822889679788783
aI0
aF0.13822889679788783
aF0.13822889679788783
aa(lp104
F0.19395769176926606
aI0
aF0.19395769176926606
aF0.19395769176926606
aF0.19395769176926606
aF0.030211541153669697
aI0
aF0.19395769176926606
aI0
aa(lp105
F0.3254031181696633
aI0
aF0.3254031181696633
aI0
aF0.02379064549101012
aI0
aI0
aF0.3254031181696633
aI0
aa(lp106
I0
aI0
aI0
aI0
aI0
aI0
aI1
aI0
aI0
aa(lp107
I0
aI0
aI0
aI0
aI0
aI0
aI0
aI0
aI1
aa(lp108
I0
aI0
aI0
aI1
aI0
aI0
aI0
aI0
aI0
aa(lp109
I0
aI0
aI0
aI0
aI0
aI0
aI0
aI1
aI0
aa(lp110
I0
aI0
aI0
aI0
aI0
aI1
aI0
aI0
aI0
aa(lp111
I1
aI0
aI0
aI0
aI0
aI0
aI0
aI0
aI0
aa(lp112
I0
aI0
aI0
aI1
aI0
aI0
aI0
aI0
aI0
aa(lp113
I0
aI0
aI0
aI0
aI1
aI0
aI0
aI0
aI0
aa(lp114
F0.12042111175049498
aF0.12042111175049498
aF0.036631105996040074
aF0.12042111175049498
aF0.12042111175049498
aF0.12042111175049498
aF0.12042111175049498
aF0.12042111175049498
aF0.12042111175049498
aa(lp115
F0.16049567192099326
aF0.16049567192099326
aI0
aF0.16049567192099326
aF0.16049567192099326
aI0
aF0.16049567192099326
aF0.16049567192099326
aF0.0370259684740403
aa(lp116
I0
aF0.03625384938440364
aI0
aF0.2409365376538991
aF0.2409365376538991
aI0
aF0.2409365376538991
aF0.2409365376538991
aI0
aa(lp117
I0
aI0
aI0
aI0
aF0.48413956967265986
aI0
aF0.03172086065468016
aF0.48413956967265986
aI0
aa(lp118
F0.1396201920192497
aI0
aF0.1396201920192497
aF0.1396201920192497
aF0.1396201920192497
aF0.022658655865252272
aF0.1396201920192497
aF0.1396201920192497
aF0.1396201920192497
aa(lp119
I0
aI0
aF0.19682791393453197
aF0.19682791393453197
aF0.19682791393453197
aI0
aF0.01586043032734008
aF0.19682791393453197
aF0.19682791393453197
aa(lp120
I0
aI1
aI0
aI0
aI0
aI0
aI0
aI0
aI0
aa(lp121
I1
aI0
aI0
aI0
aI0
aI0
aI0
aI0
aI0
aa(lp122
I0
aI0
aI1
aI0
aI0
aI0
aI0
aI0
aI0
aa(lp123
I0
aI0
aI1
aI0
aI0
aI0
aI0
aI0
aI0
aa(lp124
I0
aI1
aI0
aI0
aI0
aI0
aI0
aI0
aI0
aa(lp125
I0
aI0
aI0
aI0
aI1
aI0
aI0
aI0
aI0
aa(lp126
I0
aI0
aI0
aI0
aI0
aI0
aI0
aI1
aI0
aa(lp127
F0.12042111175049498
aF0.12042111175049498
aF0.12042111175049498
aF0.12042111175049498
aF0.12042111175049498
aF0.12042111175049498
aF0.036631105996040074
aF0.12042111175049498
aF0.12042111175049498
aa(lp128
F0.16049567192099326
aF0.16049567192099326
aI0
aF0.16049567192099326
aF0.16049567192099326
aF0.16049567192099326
aI0
aF0.16049567192099326
aF0.0370259684740403
aa(lp129
F0.03625384938440364
aI0
aI0
aF0.2409365376538991
aF0.2409365376538991
aF0.2409365376538991
aI0
aF0.2409365376538991
aI0
aa(lp130
I0
aI0
aI0
aF0.48413956967265986
aI0
aF0.03172086065468016
aI0
aF0.48413956967265986
aI0
aa(lp131
F0.1396201920192497
aF0.1396201920192497
aF0.1396201920192497
aF0.1396201920192497
aF0.022658655865252272
aF0.1396201920192497
aI0
aF0.1396201920192497
aF0.1396201920192497
aa(lp132
F0.19682791393453197
aF0.19682791393453197
aF0.19682791393453197
aF0.01586043032734008
aI0
aF0.19682791393453197
aI0
aI0
aF0.19682791393453197
aa(lp133
I0
aI0
aI0
aI0
aI0
aI0
aI1
aI0
aI0
aa(lp134
I0
aI0
aI0
aI0
aI0
aI0
aI0
aI1
aI0
aa(lp135
I0
aI0
aI0
aI0
aI0
aI0
aI0
aI0
aI1
aa(lp136
F0.13697000082206498
aF0.13697000082206498
aI0
aF0.13697000082206498
aF0.13697000082206498
aF0.13697000082206498
aF0.041209994245545084
aF0.13697000082206498
aF0.13697000082206498
aa(lp137
F0.04319696321971368
aF0.19136060735605726
aI0
aF0.19136060735605726
aF0.19136060735605726
aI0
aI0
aF0.19136060735605726
aF0.19136060735605726
aa(lp138
I0
aF0.3182275627564985
aI0
aF0.3182275627564985
aI0
aI0
aI0
aF0.3182275627564985
aF0.045317311730504545
aa(lp139
I0
aF0.04758129098202024
aI0
aF0.9524187090179798
aI0
aI0
aI0
aI0
aI0
aa(lp140
I0
aI0
aI1
aI0
aI0
aI0
aI0
aI0
aI0
aa(lp141
I0
aI0
aI0
aI0
aI0
aI1
aI0
aI0
aI0
aa(lp142
I0
aI0
aI0
aI0
aI1
aI0
aI0
aI0
aI0
aa(lp143
I0
aI0
aI0
aI0
aI0
aI0
aI0
aI1
aI0
aa(lp144
I0
aI0
aI0
aI1
aI0
aI0
aI0
aI0
aI0
aa(lp145
F0.13697000082206498
aF0.13697000082206498
aF0.13697000082206498
aF0.041209994245545084
aI0
aF0.13697000082206498
aF0.13697000082206498
aF0.13697000082206498
aF0.13697000082206498
aa(lp146
F0.04319696321971368
aF0.19136060735605726
aF0.19136060735605726
aI0
aI0
aI0
aF0.19136060735605726
aF0.19136060735605726
aF0.19136060735605726
aa(lp147
I0
aF0.3182275627564985
aI0
aI0
aI0
aI0
aF0.3182275627564985
aF0.3182275627564985
aF0.045317311730504545
aa(lp148
I0
aF0.04758129098202024
aI0
aI0
aI0
aI0
aF0.9524187090179798
aI0
aI0
aa(lp149
I0
aI0
aI0
aI0
aI1
aI0
aI0
aI0
aI0
aa(lp150
I0
aI0
aI0
aI0
aI0
aI1
aI0
aI0
aI0
aa(lp151
I0
aI0
aI1
aI0
aI0
aI0
aI0
aI0
aI0
aa(lp152
I0
aI0
aI0
aI0
aI0
aI0
aI0
aI1
aI0
aa(lp153
I0
aI0
aI0
aI0
aI0
aI0
aI1
aI0
aI0
aa(lp154
F0.13697000082206498
aF0.13697000082206498
aF0.13697000082206498
aF0.041209994245545084
aF0.13697000082206498
aI0
aF0.13697000082206498
aF0.13697000082206498
aF0.13697000082206498
aa(lp155
F0.19136060735605726
aF0.19136060735605726
aF0.19136060735605726
aI0
aF0.19136060735605726
aI0
aI0
aF0.19136060735605726
aF0.04319696321971368
aa(lp156
F0.3182275627564985
aI0
aF0.3182275627564985
aI0
aF0.3182275627564985
aI0
aI0
aF0.045317311730504545
aI0
aa(lp157
F0.9524187090179798
aI0
aF0.04758129098202024
aI0
aI0
aI0
aI0
aI0
aI0
aa(lp158
F0.11953514805156436
aF0.11953514805156436
aF0.11953514805156436
aF0.11953514805156436
aF0.11953514805156436
aF0.04371881558748517
aF0.11953514805156436
aF0.11953514805156436
aF0.11953514805156436
aa(lp159
F0.15881714395322952
aF0.15881714395322952
aF0.15881714395322952
aI0
aF0.15881714395322952
aI0
aF0.04709713628062295
aF0.15881714395322952
aF0.15881714395322952
aa(lp160
F0.23704091103408592
aF0.051836355863656425
aF0.23704091103408592
aI0
aF0.23704091103408592
aI0
aI0
aF0.23704091103408592
aI0
aa(lp161
F0.46978845884633025
aI0
aF0.46978845884633025
aI0
aF0.06042308230733939
aI0
aI0
aI0
aI0
aa(lp162
F0.09516258196404048
aI0
aI0
aI0
aI0
aI0
aI0
aI0
aI0
aa(lp163
F0.13697000082206498
aF0.13697000082206498
aF0.13697000082206498
aF0.13697000082206498
aF0.041209994245545084
aF0.13697000082206498
aF0.13697000082206498
aF0.13697000082206498
aI0
aa(lp164
F0.04319696321971368
aF0.19136060735605726
aF0.19136060735605726
aF0.19136060735605726
aI0
aI0
aF0.19136060735605726
aF0.19136060735605726
aI0
aa(lp165
I0
aI0
aF0.3182275627564985
aF0.045317311730504545
aI0
aI0
aF0.3182275627564985
aF0.3182275627564985
aI0
aa(lp166
I0
aI0
aF0.04758129098202024
aI0
aI0
aI0
aF0.9524187090179798
aI0
aI0
aa(lp167
I0
aI0
aI0
aI0
aI0
aI0
aI0
aI0
aI1
aa(lp168
I0
aI0
aI0
aI0
aI0
aI1
aI0
aI0
aI0
aa(lp169
I0
aI1
aI0
aI0
aI0
aI0
aI0
aI0
aI0
aa(lp170
I0
aI0
aI0
aI0
aI0
aI0
aI0
aI1
aI0
aa(lp171
I0
aI0
aI0
aI0
aI0
aI0
aI1
aI0
aI0
aa(lp172
F0.13697000082206498
aF0.13697000082206498
aF0.041209994245545084
aF0.13697000082206498
aF0.13697000082206498
aF0.13697000082206498
aI0
aF0.13697000082206498
aF0.13697000082206498
aa(lp173
F0.19136060735605726
aF0.19136060735605726
aI0
aF0.04319696321971368
aF0.19136060735605726
aF0.19136060735605726
aI0
aF0.19136060735605726
aI0
aa(lp174
F0.3182275627564985
aI0
aI0
aI0
aF0.3182275627564985
aF0.3182275627564985
aI0
aF0.045317311730504545
aI0
aa(lp175
I0
aI0
aI0
aI0
aF0.04758129098202024
aF0.9524187090179798
aI0
aI0
aI0
aa(lp176
F0.11953514805156436
aF0.11953514805156436
aF0.11953514805156436
aF0.11953514805156436
aF0.11953514805156436
aF0.11953514805156436
aF0.04371881558748517
aF0.11953514805156436
aF0.11953514805156436
aa(lp177
F0.15881714395322952
aF0.15881714395322952
aI0
aF0.15881714395322952
aF0.15881714395322952
aF0.15881714395322952
aI0
aF0.15881714395322952
aF0.04709713628062295
aa(lp178
F0.23704091103408592
aF0.051836355863656425
aI0
aI0
aF0.23704091103408592
aF0.23704091103408592
aI0
aF0.23704091103408592
aI0
aa(lp179
F0.06042308230733939
aI0
aI0
aI0
aF0.46978845884633025
aF0.46978845884633025
aI0
aI0
aI0
aa(lp180
I0
aI0
aI0
aI0
aI0
aF0.09516258196404048
aI0
aI0
aI0
aa(lp181
F0.13822889679788783
aF0.13822889679788783
aF0.032397722414785265
aI0
aF0.13822889679788783
aF0.13822889679788783
aF0.13822889679788783
aF0.13822889679788783
aF0.13822889679788783
aa(lp182
I0
aF0.19395769176926606
aI0
aI0
aF0.19395769176926606
aF0.19395769176926606
aF0.19395769176926606
aF0.030211541153669697
aF0.19395769176926606
aa(lp183
I0
aF0.3254031181696633
aI0
aI0
aF0.3254031181696633
aI0
aF0.02379064549101012
aI0
aF0.3254031181696633
aa(lp184
I0
aI0
aI0
aI1
aI0
aI0
aI0
aI0
aI0
aa(lp185
I1
aI0
aI0
aI0
aI0
aI0
aI0
aI0
aI0
aa(lp186
I0
aI0
aI0
aI0
aI0
aI1
aI0
aI0
aI0
aa(lp187
I0
aI0
aI0
aI0
aI1
aI0
aI0
aI0
aI0
aa(lp188
F0.041209994245545084
aF0.13697000082206498
aF0.13697000082206498
aF0.13697000082206498
aI0
aF0.13697000082206498
aF0.13697000082206498
aF0.13697000082206498
aF0.13697000082206498
aa(lp189
I0
aF0.19136060735605726
aF0.19136060735605726
aF0.04319696321971368
aI0
aF0.19136060735605726
aI0
aF0.19136060735605726
aF0.19136060735605726
aa(lp190
I0
aI0
aF0.3182275627564985
aI0
aI0
aF0.045317311730504545
aI0
aF0.3182275627564985
aF0.3182275627564985
aa(lp191
I0
aI0
aF0.9524187090179798
aI0
aI0
aI0
aI0
aF0.04758129098202024
aI0
aa(lp192
I0
aI0
aI0
aI0
aI1
aI0
aI0
aI0
aI0
aa(lp193
I0
aI0
aI0
aI0
aI0
aI0
aI1
aI0
aI0
aa(lp194
I0
aI1
aI0
aI0
aI0
aI0
aI0
aI0
aI0
aa(lp195
I0
aI0
aI0
aI0
aI0
aI0
aI0
aI0
aI1
aa(lp196
I0
aI0
aI1
aI0
aI0
aI0
aI0
aI0
aI0
aa(lp197
I0
aI0
aI0
aI0
aI0
aI0
aI0
aI1
aI0
aa(lp198
I0
aI0
aI0
aI0
aI1
aI0
aI0
aI0
aI0
aa(lp199
I0
aI1
aI0
aI0
aI0
aI0
aI0
aI0
aI0
aa(lp200
F0.12140025306502385
aF0.12140025306502385
aF0.12140025306502385
aF0.028797975479809123
aF0.12140025306502385
aF0.12140025306502385
aF0.12140025306502385
aF0.12140025306502385
aF0.12140025306502385
aa(lp201
F0.025895606703145453
aF0.1623507322161424
aF0.1623507322161424
aI0
aF0.1623507322161424
aF0.1623507322161424
aF0.1623507322161424
aI0
aF0.1623507322161424
aa(lp202
I0
aF0.24524187090179797
aF0.24524187090179797
aI0
aI0
aF0.019032516392808098
aF0.24524187090179797
aI0
aF0.24524187090179797
aa(lp203
F0.041209994245545084
aF0.13697000082206498
aF0.13697000082206498
aI0
aF0.13697000082206498
aF0.13697000082206498
aF0.13697000082206498
aF0.13697000082206498
aF0.13697000082206498
aa(lp204
I0
aF0.19136060735605726
aF0.19136060735605726
aI0
aI0
aF0.19136060735605726
aF0.19136060735605726
aF0.04319696321971368
aF0.19136060735605726
aa(lp205
I0
aF0.3182275627564985
aF0.3182275627564985
aI0
aI0
aF0.045317311730504545
aF0.3182275627564985
aI0
aI0
aa(lp206
I0
aF0.04758129098202024
aF0.9524187090179798
aI0
aI0
aI0
aI0
aI0
aI0
aa(lp207
I0
aI0
aI0
aI1
aI0
aI0
aI0
aI0
aI0
aa(lp208
I0
aI0
aI0
aI0
aI1
aI0
aI0
aI0
aI0
aa(lp209
I0
aI0
aI0
aI0
aI0
aI0
aI0
aI0
aI1
aa(lp210
I0
aI0
aI0
aI0
aI0
aI0
aI1
aI0
aI0
aa(lp211
I0
aI0
aI1
aI0
aI0
aI0
aI0
aI0
aI0
aa(lp212
I1
aI0
aI0
aI0
aI0
aI0
aI0
aI0
aI0
aa(lp213
I0
aI0
aI0
aI1
aI0
aI0
aI0
aI0
aI0
aa(lp214
I0
aI0
aI0
aI0
aI0
aI0
aI0
aI0
aI1
aa(lp215
I0
aI0
aI0
aI0
aI1
aI0
aI0
aI0
aI0
aa(lp216
F0.12042111175049498
aF0.036631105996040074
aF0.12042111175049498
aF0.12042111175049498
aF0.12042111175049498
aF0.12042111175049498
aF0.12042111175049498
aF0.12042111175049498
aF0.12042111175049498
aa(lp217
I0
aI0
aF0.0370259684740403
aF0.16049567192099326
aF0.16049567192099326
aF0.16049567192099326
aF0.16049567192099326
aF0.16049567192099326
aF0.16049567192099326
aa(lp218
I0
aI0
aI0
aI0
aF0.2409365376538991
aF0.2409365376538991
aF0.03625384938440364
aF0.2409365376538991
aF0.2409365376538991
aa(lp219
I0
aI0
aI0
aI0
aF0.48413956967265986
aF0.03172086065468016
aI0
aF0.48413956967265986
aI0
aa(lp220
F0.13697000082206498
aF0.13697000082206498
aI0
aF0.13697000082206498
aF0.13697000082206498
aF0.041209994245545084
aF0.13697000082206498
aF0.13697000082206498
aF0.13697000082206498
aa(lp221
F0.19136060735605726
aF0.04319696321971368
aI0
aF0.19136060735605726
aF0.19136060735605726
aI0
aF0.19136060735605726
aF0.19136060735605726
aI0
aa(lp222
F0.3182275627564985
aI0
aI0
aF0.3182275627564985
aI0
aI0
aF0.045317311730504545
aF0.3182275627564985
aI0
aa(lp223
F0.9524187090179798
aI0
aI0
aF0.04758129098202024
aI0
aI0
aI0
aI0
aI0
aa(lp224
I0
aI0
aI1
aI0
aI0
aI0
aI0
aI0
aI0
aa(lp225
I0
aI0
aI0
aI0
aI0
aI0
aI0
aI0
aI1
aa(lp226
I0
aI0
aI0
aI0
aI1
aI0
aI0
aI0
aI0
aa(lp227
I0
aI0
aI0
aI0
aI0
aI0
aI0
aI1
aI0
aa(lp228
I1
aI0
aI0
aI0
aI0
aI0
aI0
aI0
aI0
aa(lp229
F0.041209994245545084
aF0.13697000082206498
aI0
aF0.13697000082206498
aF0.13697000082206498
aF0.13697000082206498
aF0.13697000082206498
aF0.13697000082206498
aF0.13697000082206498
aa(lp230
I0
aF0.19136060735605726
aI0
aF0.19136060735605726
aF0.19136060735605726
aI0
aF0.19136060735605726
aF0.19136060735605726
aF0.04319696321971368
aa(lp231
I0
aF0.3182275627564985
aI0
aF0.045317311730504545
aF0.3182275627564985
aI0
aI0
aF0.3182275627564985
aI0
aa(lp232
I0
aI0
aI0
aI0
aF0.9524187090179798
aI0
aI0
aF0.04758129098202024
aI0
aa(lp233
I0
aI0
aI1
aI0
aI0
aI0
aI0
aI0
aI0
aa(lp234
I0
aI0
aI0
aI0
aI0
aI1
aI0
aI0
aI0
aa(lp235
I0
aI0
aI0
aI0
aI0
aI0
aI1
aI0
aI0
aa(lp236
I0
aI1
aI0
aI0
aI0
aI0
aI0
aI0
aI0
aa(lp237
I0
aI0
aI0
aI0
aI1
aI0
aI0
aI0
aI0
aa(lp238
F0.13822889679788783
aI0
aF0.13822889679788783
aF0.13822889679788783
aF0.13822889679788783
aF0.13822889679788783
aF0.13822889679788783
aF0.13822889679788783
aF0.032397722414785265
aa(lp239
F0.19395769176926606
aI0
aI0
aF0.19395769176926606
aF0.030211541153669697
aF0.19395769176926606
aF0.19395769176926606
aF0.19395769176926606
aI0
aa(lp240
F0.3254031181696633
aI0
aI0
aI0
aI0
aF0.3254031181696633
aF0.02379064549101012
aF0.3254031181696633
aI0
aa(lp241
I0
aI1
aI0
aI0
aI0
aI0
aI0
aI0
aI0
aa(lp242
I0
aI0
aI1
aI0
aI0
aI0
aI0
aI0
aI0
aa(lp243
I0
aI0
aI0
aI1
aI0
aI0
aI0
aI0
aI0
aa(lp244
I1
aI0
aI0
aI0
aI0
aI0
aI0
aI0
aI0
aa(lp245
F0.13822889679788783
aI0
aF0.13822889679788783
aF0.13822889679788783
aF0.13822889679788783
aF0.13822889679788783
aF0.13822889679788783
aF0.032397722414785265
aF0.13822889679788783
aa(lp246
F0.19395769176926606
aI0
aF0.19395769176926606
aF0.030211541153669697
aF0.19395769176926606
aI0
aF0.19395769176926606
aI0
aF0.19395769176926606
aa(lp247
F0.3254031181696633
aI0
aI0
aI0
aF0.02379064549101012
aI0
aF0.3254031181696633
aI0
aF0.3254031181696633
aa(lp248
I0
aI1
aI0
aI0
aI0
aI0
aI0
aI0
aI0
aa(lp249
I0
aI0
aI0
aI0
aI0
aI1
aI0
aI0
aI0
aa(lp250
I0
aI0
aI1
aI0
aI0
aI0
aI0
aI0
aI0
aa(lp251
I0
aI0
aI0
aI0
aI0
aI0
aI0
aI0
aI1
aa(lp252
F0.032397722414785265
aF0.13822889679788783
aF0.13822889679788783
aI0
aF0.13822889679788783
aF0.13822889679788783
aF0.13822889679788783
aF0.13822889679788783
aF0.13822889679788783
aa(lp253
I0
aF0.19395769176926606
aF0.19395769176926606
aI0
aI0
aF0.19395769176926606
aF0.19395769176926606
aF0.030211541153669697
aF0.19395769176926606
aa(lp254
I0
aF0.02379064549101012
aI0
aI0
aI0
aF0.3254031181696633
aF0.3254031181696633
aI0
aF0.3254031181696633
aa(lp255
I0
aI0
aI0
aI1
aI0
aI0
aI0
aI0
aI0
aa(lp256
I0
aI0
aI0
aI0
aI1
aI0
aI0
aI0
aI0
aa(lp257
I0
aI0
aI1
aI0
aI0
aI0
aI0
aI0
aI0
aa(lp258
I0
aI0
aI0
aI0
aI0
aI0
aI1
aI0
aI0
aa(lp259
F0.032397722414785265
aF0.13822889679788783
aF0.13822889679788783
aF0.13822889679788783
aF0.13822889679788783
aF0.13822889679788783
aF0.13822889679788783
aI0
aF0.13822889679788783
aa(lp260
I0
aF0.19395769176926606
aF0.030211541153669697
aF0.19395769176926606
aF0.19395769176926606
aF0.19395769176926606
aI0
aI0
aF0.19395769176926606
aa(lp261
I0
aF0.3254031181696633
aI0
aI0
aF0.3254031181696633
aF0.02379064549101012
aI0
aI0
aF0.3254031181696633
aa(lp262
I0
aI0
aI0
aI0
aI0
aI0
aI0
aI1
aI0
aa(lp263
I0
aI0
aI0
aI0
aI0
aI0
aI1
aI0
aI0
aa(lp264
I0
aI0
aI0
aI1
aI0
aI0
aI0
aI0
aI0
aa(lp265
I0
aI0
aI0
aI0
aI0
aI0
aI0
aI0
aI1
aa(lp266
F0.1396201920192497
aF0.1396201920192497
aI0
aF0.1396201920192497
aF0.022658655865252272
aF0.1396201920192497
aF0.1396201920192497
aF0.1396201920192497
aF0.1396201920192497
aa(lp267
F0.19682791393453197
aF0.01586043032734008
aI0
aF0.19682791393453197
aI0
aF0.19682791393453197
aF0.19682791393453197
aF0.19682791393453197
aI0
aa(lp268
I0
aI0
aI1
aI0
aI0
aI0
aI0
aI0
aI0
aa(lp269
I0
aI0
aI0
aI0
aI0
aI0
aI0
aI0
aI1
aa(lp270
I0
aI0
aI0
aI0
aI0
aI1
aI0
aI0
aI0
aa(lp271
F0.13822889679788783
aF0.032397722414785265
aF0.13822889679788783
aF0.13822889679788783
aF0.13822889679788783
aF0.13822889679788783
aF0.13822889679788783
aF0.13822889679788783
aI0
aa(lp272
F0.19395769176926606
aI0
aF0.19395769176926606
aF0.19395769176926606
aI0
aF0.19395769176926606
aF0.19395769176926606
aF0.030211541153669697
aI0
aa(lp273
F0.3254031181696633
aI0
aF0.3254031181696633
aI0
aI0
aF0.02379064549101012
aF0.3254031181696633
aI0
aI0
aa(lp274
I0
aI0
aI0
aI0
aI0
aI0
aI0
aI0
aI1
aa(lp275
I0
aI0
aI0
aI0
aI1
aI0
aI0
aI0
aI0
aa(lp276
I0
aI0
aI0
aI1
aI0
aI0
aI0
aI0
aI0
aa(lp277
I1
aI0
aI0
aI0
aI0
aI0
aI0
aI0
aI0
aa(lp278
F0.13697000082206498
aF0.13697000082206498
aF0.13697000082206498
aF0.13697000082206498
aF0.13697000082206498
aF0.13697000082206498
aF0.041209994245545084
aI0
aF0.13697000082206498
aa(lp279
F0.19136060735605726
aF0.04319696321971368
aI0
aF0.19136060735605726
aF0.19136060735605726
aF0.19136060735605726
aI0
aI0
aF0.19136060735605726
aa(lp280
F0.045317311730504545
aI0
aI0
aF0.3182275627564985
aF0.3182275627564985
aI0
aI0
aI0
aF0.3182275627564985
aa(lp281
I0
aI0
aI0
aI0
aF0.04758129098202024
aI0
aI0
aI0
aF0.9524187090179798
aa(lp282
I0
aI0
aI0
aI0
aI0
aI0
aI0
aI1
aI0
aa(lp283
I0
aI0
aI1
aI0
aI0
aI0
aI0
aI0
aI0
aa(lp284
I0
aI0
aI0
aI0
aI0
aI1
aI0
aI0
aI0
aa(lp285
I0
aI0
aI0
aI1
aI0
aI0
aI0
aI0
aI0
aa(lp286
I0
aI0
aI0
aI0
aI0
aI0
aI0
aI0
aI1
aa(lp287
F0.13697000082206498
aF0.13697000082206498
aF0.13697000082206498
aF0.041209994245545084
aF0.13697000082206498
aI0
aF0.13697000082206498
aF0.13697000082206498
aF0.13697000082206498
aa(lp288
F0.19136060735605726
aF0.04319696321971368
aI0
aI0
aF0.19136060735605726
aI0
aF0.19136060735605726
aF0.19136060735605726
aF0.19136060735605726
aa(lp289
F0.3182275627564985
aI0
aI0
aI0
aF0.3182275627564985
aI0
aI0
aF0.3182275627564985
aF0.045317311730504545
aa(lp290
F0.9524187090179798
aI0
aI0
aI0
aF0.04758129098202024
aI0
aI0
aI0
aI0
aa(lp291
F0.11953514805156436
aF0.11953514805156436
aF0.11953514805156436
aF0.11953514805156436
aF0.11953514805156436
aF0.04371881558748517
aF0.11953514805156436
aF0.11953514805156436
aF0.11953514805156436
aa(lp292
F0.15881714395322952
aF0.15881714395322952
aF0.04709713628062295
aI0
aF0.15881714395322952
aI0
aF0.15881714395322952
aF0.15881714395322952
aF0.15881714395322952
aa(lp293
F0.23704091103408592
aI0
aI0
aI0
aF0.23704091103408592
aI0
aF0.051836355863656425
aF0.23704091103408592
aF0.23704091103408592
aa(lp294
F0.46978845884633025
aI0
aI0
aI0
aF0.46978845884633025
aI0
aI0
aF0.06042308230733939
aI0
aa(lp295
F0.09516258196404048
aI0
aI0
aI0
aI0
aI0
aI0
aI0
aI0
aa(lp296
I0
aI0
aI1
aI0
aI0
aI0
aI0
aI0
aI0
aa(lp297
I0
aI0
aI0
aI0
aI0
aI1
aI0
aI0
aI0
aa(lp298
I0
aI0
aI0
aI1
aI0
aI0
aI0
aI0
aI0
aa(lp299
I0
aI0
aI0
aI0
aI1
aI0
aI0
aI0
aI0
aa(lp300
F0.12042111175049498
aF0.12042111175049498
aF0.12042111175049498
aF0.12042111175049498
aF0.12042111175049498
aF0.12042111175049498
aF0.12042111175049498
aF0.12042111175049498
aF0.036631105996040074
aa(lp301
F0.0370259684740403
aF0.16049567192099326
aI0
aF0.16049567192099326
aF0.16049567192099326
aF0.16049567192099326
aF0.16049567192099326
aF0.16049567192099326
aI0
aa(lp302
I0
aF0.03625384938440364
aI0
aF0.2409365376538991
aF0.2409365376538991
aI0
aF0.2409365376538991
aF0.2409365376538991
aI0
aa(lp303
I0
aI0
aI0
aI0
aF0.48413956967265986
aI0
aF0.03172086065468016
aF0.48413956967265986
aI0
aa(lp304
I0
aI0
aI0
aI0
aI0
aI0
aI0
aI1
aI0
aa(lp305
I0
aI0
aI0
aI0
aI0
aI0
aI0
aI0
aI1
aa(lp306
I0
aI0
aI0
aI0
aI0
aI1
aI0
aI0
aI0
aa(lp307
I0
aI0
aI0
aI0
aI0
aI0
aI1
aI0
aI0
aa(lp308
F0.12042111175049498
aF0.12042111175049498
aF0.12042111175049498
aF0.12042111175049498
aF0.036631105996040074
aF0.12042111175049498
aF0.12042111175049498
aF0.12042111175049498
aF0.12042111175049498
aa(lp309
F0.16049567192099326
aF0.16049567192099326
aF0.16049567192099326
aF0.0370259684740403
aI0
aF0.16049567192099326
aF0.16049567192099326
aI0
aF0.16049567192099326
aa(lp310
F0.2409365376538991
aF0.03625384938440364
aF0.2409365376538991
aI0
aI0
aF0.2409365376538991
aF0.2409365376538991
aI0
aI0
aa(lp311
F0.03172086065468016
aI0
aF0.48413956967265986
aI0
aI0
aI0
aF0.48413956967265986
aI0
aI0
aa(lp312
F0.13697000082206498
aF0.13697000082206498
aI0
aF0.13697000082206498
aF0.041209994245545084
aF0.13697000082206498
aF0.13697000082206498
aF0.13697000082206498
aF0.13697000082206498
aa(lp313
F0.19136060735605726
aI0
aI0
aF0.04319696321971368
aI0
aF0.19136060735605726
aF0.19136060735605726
aF0.19136060735605726
aF0.19136060735605726
aa(lp314
F0.3182275627564985
aI0
aI0
aI0
aI0
aF0.3182275627564985
aI0
aF0.045317311730504545
aF0.3182275627564985
aa(lp315
F0.9524187090179798
aI0
aI0
aI0
aI0
aI0
aI0
aI0
aF0.04758129098202024
aa(lp316
I0
aI0
aI1
aI0
aI0
aI0
aI0
aI0
aI0
aa(lp317
I0
aI1
aI0
aI0
aI0
aI0
aI0
aI0
aI0
aa(lp318
I0
aI0
aI0
aI0
aI0
aI0
aI1
aI0
aI0
aa(lp319
I0
aI0
aI0
aI0
aI0
aI1
aI0
aI0
aI0
aa(lp320
I1
aI0
aI0
aI0
aI0
aI0
aI0
aI0
aI0
aa(lp321
F0.13822889679788783
aF0.13822889679788783
aI0
aF0.032397722414785265
aF0.13822889679788783
aF0.13822889679788783
aF0.13822889679788783
aF0.13822889679788783
aF0.13822889679788783
aa(lp322
F0.19395769176926606
aI0
aI0
aI0
aF0.19395769176926606
aF0.19395769176926606
aF0.19395769176926606
aF0.030211541153669697
aF0.19395769176926606
aa(lp323
F0.3254031181696633
aI0
aI0
aI0
aI0
aF0.3254031181696633
aF0.02379064549101012
aI0
aF0.3254031181696633
aa(lp324
I0
aI0
aI1
aI0
aI0
aI0
aI0
aI0
aI0
aa(lp325
I0
aI1
aI0
aI0
aI0
aI0
aI0
aI0
aI0
aa(lp326
I0
aI0
aI0
aI0
aI1
aI0
aI0
aI0
aI0
aa(lp327
I1
aI0
aI0
aI0
aI0
aI0
aI0
aI0
aI0
aa(lp328
I0
aI0
aI0
aI0
aI0
aI0
aI1
aI0
aI0
aa(lp329
I0
aI0
aI0
aI0
aI0
aI0
aI0
aI0
aI1
aa(lp330
I0
aI0
aI0
aI0
aI1
aI0
aI0
aI0
aI0
aa(lp331
I0
aI0
aI1
aI0
aI0
aI0
aI0
aI0
aI0
aa(lp332
F0.12042111175049498
aF0.036631105996040074
aF0.12042111175049498
aF0.12042111175049498
aF0.12042111175049498
aF0.12042111175049498
aF0.12042111175049498
aF0.12042111175049498
aF0.12042111175049498
aa(lp333
F0.16049567192099326
aI0
aF0.16049567192099326
aF0.16049567192099326
aF0.16049567192099326
aF0.0370259684740403
aI0
aF0.16049567192099326
aF0.16049567192099326
aa(lp334
F0.2409365376538991
aI0
aF0.2409365376538991
aF0.2409365376538991
aF0.2409365376538991
aI0
aI0
aF0.03625384938440364
aI0
aa(lp335
F0.03172086065468016
aI0
aF0.48413956967265986
aF0.48413956967265986
aI0
aI0
aI0
aI0
aI0
aa(lp336
I0
aI0
aI0
aI0
aI0
aI0
aI1
aI0
aI0
aa(lp337
I0
aI0
aI1
aI0
aI0
aI0
aI0
aI0
aI0
aa(lp338
I0
aI0
aI0
aI0
aI1
aI0
aI0
aI0
aI0
aa(lp339
F0.12140025306502385
aF0.028797975479809123
aF0.12140025306502385
aF0.12140025306502385
aF0.12140025306502385
aF0.12140025306502385
aF0.12140025306502385
aF0.12140025306502385
aF0.12140025306502385
aa(lp340
F0.1623507322161424
aI0
aF0.1623507322161424
aF0.1623507322161424
aF0.1623507322161424
aF0.025895606703145453
aI0
aF0.1623507322161424
aF0.1623507322161424
aa(lp341
F0.24524187090179797
aI0
aI0
aF0.24524187090179797
aF0.24524187090179797
aI0
aI0
aF0.019032516392808098
aF0.24524187090179797
aa(lp342
F0.13697000082206498
aF0.13697000082206498
aF0.13697000082206498
aF0.041209994245545084
aF0.13697000082206498
aF0.13697000082206498
aF0.13697000082206498
aI0
aF0.13697000082206498
aa(lp343
F0.19136060735605726
aF0.19136060735605726
aF0.04319696321971368
aI0
aF0.19136060735605726
aF0.19136060735605726
aI0
aI0
aF0.19136060735605726
aa(lp344
F0.3182275627564985
aI0
aI0
aI0
aF0.045317311730504545
aF0.3182275627564985
aI0
aI0
aF0.3182275627564985
aa(lp345
I0
aI0
aI0
aI0
aI0
aF0.9524187090179798
aI0
aI0
aF0.04758129098202024
aa(lp346
F0.11953514805156436
aF0.11953514805156436
aF0.11953514805156436
aF0.11953514805156436
aF0.11953514805156436
aF0.11953514805156436
aF0.11953514805156436
aF0.04371881558748517
aF0.11953514805156436
aa(lp347
F0.15881714395322952
aF0.15881714395322952
aF0.15881714395322952
aI0
aF0.15881714395322952
aF0.15881714395322952
aF0.04709713628062295
aI0
aF0.15881714395322952
aa(lp348
F0.23704091103408592
aF0.051836355863656425
aI0
aI0
aF0.23704091103408592
aF0.23704091103408592
aI0
aI0
aF0.23704091103408592
aa(lp349
F0.06042308230733939
aI0
aI0
aI0
aI0
aF0.46978845884633025
aI0
aI0
aF0.46978845884633025
aa(lp350
I0
aI0
aI0
aI0
aI0
aF0.09516258196404048
aI0
aI0
aI0
aa(lp351
F0.13822889679788783
aF0.13822889679788783
aF0.13822889679788783
aF0.13822889679788783
aI0
aF0.13822889679788783
aF0.032397722414785265
aF0.13822889679788783
aF0.13822889679788783
aa(lp352
I0
aF0.19395769176926606
aF0.19395769176926606
aF0.030211541153669697
aI0
aF0.19395769176926606
aI0
aF0.19395769176926606
aF0.19395769176926606
aa(lp353
I0
aI0
aF0.3254031181696633
aI0
aI0
aF0.02379064549101012
aI0
aF0.3254031181696633
aF0.3254031181696633
aa(lp354
I0
aI0
aI0
aI0
aI1
aI0
aI0
aI0
aI0
aa(lp355
I1
aI0
aI0
aI0
aI0
aI0
aI0
aI0
aI0
aa(lp356
I0
aI1
aI0
aI0
aI0
aI0
aI0
aI0
aI0
aa(lp357
I0
aI0
aI0
aI0
aI0
aI0
aI0
aI0
aI1
aa(lp358
F0.13697000082206498
aF0.13697000082206498
aF0.13697000082206498
aF0.13697000082206498
aF0.13697000082206498
aF0.13697000082206498
aF0.13697000082206498
aF0.041209994245545084
aI0
aa(lp359
F0.04319696321971368
aF0.19136060735605726
aF0.19136060735605726
aI0
aF0.19136060735605726
aF0.19136060735605726
aF0.19136060735605726
aI0
aI0
aa(lp360
I0
aF0.3182275627564985
aF0.3182275627564985
aI0
aF0.045317311730504545
aI0
aF0.3182275627564985
aI0
aI0
aa(lp361
I0
aI0
aF0.9524187090179798
aI0
aI0
aI0
aF0.04758129098202024
aI0
aI0
aa(lp362
I0
aI0
aI0
aI0
aI0
aI0
aI0
aI0
aI1
aa(lp363
I0
aI0
aI0
aI1
aI0
aI0
aI0
aI0
aI0
aa(lp364
I0
aI0
aI0
aI0
aI0
aI1
aI0
aI0
aI0
aa(lp365
I0
aI1
aI0
aI0
aI0
aI0
aI0
aI0
aI0
aa(lp366
I0
aI0
aI1
aI0
aI0
aI0
aI0
aI0
aI0
aa(lp367
F0.13697000082206498
aF0.041209994245545084
aI0
aF0.13697000082206498
aF0.13697000082206498
aF0.13697000082206498
aF0.13697000082206498
aF0.13697000082206498
aF0.13697000082206498
aa(lp368
F0.04319696321971368
aI0
aI0
aI0
aF0.19136060735605726
aF0.19136060735605726
aF0.19136060735605726
aF0.19136060735605726
aF0.19136060735605726
aa(lp369
I0
aI0
aI0
aI0
aF0.3182275627564985
aF0.3182275627564985
aF0.3182275627564985
aI0
aF0.045317311730504545
aa(lp370
I0
aI0
aI0
aI0
aI0
aF0.9524187090179798
aF0.04758129098202024
aI0
aI0
aa(lp371
I0
aI0
aI1
aI0
aI0
aI0
aI0
aI0
aI0
aa(lp372
I0
aI0
aI0
aI1
aI0
aI0
aI0
aI0
aI0
aa(lp373
I0
aI0
aI0
aI0
aI0
aI0
aI0
aI1
aI0
aa(lp374
I0
aI0
aI0
aI0
aI1
aI0
aI0
aI0
aI0
aa(lp375
I0
aI0
aI0
aI0
aI0
aI1
aI0
aI0
aI0
aa(lp376
F0.032397722414785265
aF0.13822889679788783
aI0
aF0.13822889679788783
aF0.13822889679788783
aF0.13822889679788783
aF0.13822889679788783
aF0.13822889679788783
aF0.13822889679788783
aa(lp377
I0
aF0.19395769176926606
aI0
aI0
aF0.19395769176926606
aF0.19395769176926606
aF0.030211541153669697
aF0.19395769176926606
aF0.19395769176926606
aa(lp378
I0
aF0.3254031181696633
aI0
aI0
aI0
aF0.3254031181696633
aI0
aF0.3254031181696633
aF0.02379064549101012
aa(lp379
I0
aI0
aI1
aI0
aI0
aI0
aI0
aI0
aI0
aa(lp380
I0
aI0
aI0
aI1
aI0
aI0
aI0
aI0
aI0
aa(lp381
I0
aI0
aI0
aI0
aI1
aI0
aI0
aI0
aI0
aa(lp382
I0
aI0
aI0
aI0
aI0
aI1
aI0
aI0
aI0
aa(lp383
I0
aI0
aI0
aI0
aI1
aI0
aI0
aI0
aI0
aa(lp384
I0
aI0
aI0
aI1
aI0
aI0
aI0
aI0
aI0
aa(lp385
I1
aI0
aI0
aI0
aI0
aI0
aI0
aI0
aI0
aa(lp386
I0
aI0
aI0
aI0
aI0
aI1
aI0
aI0
aI0
aa(lp387
F0.12042111175049498
aF0.036631105996040074
aF0.12042111175049498
aF0.12042111175049498
aF0.12042111175049498
aF0.12042111175049498
aF0.12042111175049498
aF0.12042111175049498
aF0.12042111175049498
aa(lp388
F0.16049567192099326
aI0
aF0.16049567192099326
aF0.16049567192099326
aI0
aF0.16049567192099326
aF0.0370259684740403
aF0.16049567192099326
aF0.16049567192099326
aa(lp389
F0.2409365376538991
aI0
aF0.2409365376538991
aI0
aI0
aF0.2409365376538991
aI0
aF0.03625384938440364
aF0.2409365376538991
aa(lp390
I0
aI0
aF0.03172086065468016
aI0
aI0
aF0.48413956967265986
aI0
aI0
aF0.48413956967265986
aa(lp391
I0
aI0
aI0
aI0
aI0
aI0
aI0
aI0
aI1
aa(lp392
I0
aI1
aI0
aI0
aI0
aI0
aI0
aI0
aI0
aa(lp393
I0
aI0
aI0
aI0
aI1
aI0
aI0
aI0
aI0
aa(lp394
I0
aI0
aI0
aI0
aI0
aI0
aI0
aI1
aI0
aa(lp395
F0.12042111175049498
aF0.12042111175049498
aF0.12042111175049498
aF0.12042111175049498
aF0.12042111175049498
aF0.12042111175049498
aF0.036631105996040074
aF0.12042111175049498
aF0.12042111175049498
aa(lp396
F0.16049567192099326
aF0.16049567192099326
aF0.16049567192099326
aF0.16049567192099326
aF0.16049567192099326
aF0.0370259684740403
aI0
aF0.16049567192099326
aI0
aa(lp397
F0.03625384938440364
aI0
aF0.2409365376538991
aF0.2409365376538991
aF0.2409365376538991
aI0
aI0
aF0.2409365376538991
aI0
aa(lp398
I0
aI0
aF0.03172086065468016
aF0.48413956967265986
aI0
aI0
aI0
aF0.48413956967265986
aI0
aa.