(lp0
(lp1
I0
aI0
aI0
aI0
aI1
aI0
aI0
aI0
aI0
aa(lp2
I0
aI0
aI1
aI0
aI0
aI0
aI0
aI0
aI0
aa(lp3
I0
aI0
aI0
aI0
aI0
aI0
aI1
aI0
aI0
aa(lp4
F0.028797975479809123
aF0.12140025306502385
aF0.12140025306502385
aF0.12140025306502385
aF0.12140025306502385
aF0.12140025306502385
aF0.12140025306502385
aF0.12140025306502385
aF0.12140025306502385
aa(lp5
I0
aF0.025895606703145453
aF0.1623507322161424
aF0.1623507322161424
aI0
aF0.1623507322161424
aF0.1623507322161424
aF0.1623507322161424
aF0.1623507322161424
aa(lp6
I0
aI0
aI0
aF0.019032516392808098
aI0
aF0.24524187090179797
aF0.24524187090179797
aF0.24524187090179797
aF0.24524187090179797
aa(lp7
I0
aI0
aI0
aI0
aI0
aI0
aI1
aI0
aI0
aa(lp8
I0
aI0
aI0
aI0
aI1
aI0
aI0
aI0
aI0
aa(lp9
I0
aI1
aI0
aI0
aI0
aI0
aI0
aI0
aI0
aa(lp10
I0
aI0
aI1
aI0
aI0
aI0
aI0
aI0
aI0
aa(lp11
F0.036631105996040074
aF0.12042111175049498
aF0.12042111175049498
aF0.12042111175049498
aF0.12042111175049498
aF0.12042111175049498
aF0.12042111175049498
aF0.12042111175049498
aF0.12042111175049498
aa(lp12
I0
aF0.16049567192099326
aF0.16049567192099326
aF0.16049567192099326
aF0.16049567192099326
aF0.0370259684740403
aI0
aF0.16049567192099326
aF0.16049567192099326
aa(lp13
I0
aF0.2409365376538991
aF0.2409365376538991
aF0.03625384938440364
aI0
aI0
aI0
aF0.2409365376538991
aF0.2409365376538991
aa(lp14
I0
aI0
aF0.48413956967265986
aI0
aI0
aI0
aI0
aF0.03172086065468016
aF0.48413956967265986
aa(lp15
I0
aF0.13822889679788783
aF0.13822889679788783
aF0.032397722414785265
aF0.13822889679788783
aF0.13822889679788783
aF0.13822889679788783
aF0.13822889679788783
aF0.13822889679788783
aa(lp16
I0
aF0.030211541153669697
aF0.19395769176926606
aI0
aF0.19395769176926606
aF0.19395769176926606
aI0
aF0.19395769176926606
aF0.19395769176926606
aa(lp17
I0
aI0
aF0.3254031181696633
aI0
aF0.3254031181696633
aF0.3254031181696633
aI0
aF0.02379064549101012
aI0
aa(lp18
I1
aI0
aI0
aI0
aI0
aI0
aI0
aI0
aI0
aa(lp19
I0
aI0
aI0
aI0
aI0
aI0
aI1
aI0
aI0
aa(lp20
I0
aI0
aI0
aI0
aI0
aI0
aI0
aI0
aI1
aa(lp21
I0
aI0
aI0
aI0
aI1
aI0
aI0
aI0
aI0
aa(lp22
I0
aI0
aI0
aI0
aI0
aI0
aI1
aI0
aI0
aa(lp23
I0
aI1
aI0
aI0
aI0
aI0
aI0
aI0
aI0
aa(lp24
I0
aI0
aI0
aI0
aI1
aI0
aI0
aI0
aI0
aa(lp25
I0
aI0
aI0
aI0
aI0
aI0
aI0
aI1
aI0
aa(lp26
F0.036631105996040074
aF0.12042111175049498
aF0.12042111175049498
aF0.12042111175049498
aF0.12042111175049498
aF0.12042111175049498
aF0.12042111175049498
aF0.12042111175049498
aF0.12042111175049498
aa(lp27
I0
aF0.16049567192099326
aF0.0370259684740403
aF0.16049567192099326
aF0.16049567192099326
aF0.16049567192099326
aI0
aF0.16049567192099326
aF0.16049567192099326
aa(lp28
I0
aI0
aI0
aF0.03625384938440364
aF0.2409365376538991
aF0.2409365376538991
aI0
aF0.2409365376538991
aF0.2409365376538991
aa(lp29
I0
aI0
aI0
aI0
aI0
aF0.03172086065468016
aI0
aF0.48413956967265986
aF0.48413956967265986
aa(lp30
I0
aF0.1396201920192497
aF0.022658655865252272
aF0.1396201920192497
aF0.1396201920192497
aF0.1396201920192497
aF0.1396201920192497
aF0.1396201920192497
aF0.1396201920192497
aa(lp31
I0
aF0.19682791393453197
aI0
aI0
aF0.19682791393453197
aF0.01586043032734008
aF0.19682791393453197
aF0.19682791393453197
aF0.19682791393453197
aa(lp32
I1
aI0
aI0
aI0
aI0
aI0
aI0
aI0
aI0
aa(lp33
I0
aI0
aI0
aI1
aI0
aI0
aI0
aI0
aI0
aa(lp34
I0
aI0
aI0
aI0
aI0
aI0
aI1
aI0
aI0
aa(lp35
I0
aF0.13697000082206498
aF0.13697000082206498
aF0.13697000082206498
aF0.13697000082206498
aF0.13697000082206498
aF0.041209994245545084
aF0.13697000082206498
aF0.13697000082206498
aa(lp36
I0
aF0.04319696321971368
aF0.19136060735605726
aF0.19136060735605726
aF0.19136060735605726
aF0.19136060735605726
aI0
aI0
aF0.19136060735605726
aa(lp37
I0
aI0
aF0.3182275627564985
aF0.3182275627564985
aF0.045317311730504545
aF0.3182275627564985
aI0
aI0
aI0
aa(lp38
I0
aI0
aI0
aF0.04758129098202024
aI0
aF0.9524187090179798
aI0
aI0
aI0
aa(lp39
I1
aI0
aI0
aI0
aI0
aI0
aI0
aI0
aI0
aa(lp40
I0
aI0
aI0
aI0
aI0
aI0
aI0
aI1
aI0
aa(lp41
I0
aI0
aI0
aI0
aI0
aI0
aI0
aI0
aI1
aa(lp42
I0
aI0
aI1
aI0
aI0
aI0
aI0
aI0
aI0
aa(lp43
I0
aI0
aI0
aI0
aI0
aI1
aI0
aI0
aI0
aa(lp44
I0
aI0
aI0
aI0
aI0
aI0
aI0
aI0
aI1
aa(lp45
I0
aI0
aI1
aI0
aI0
aI0
aI0
aI0
aI0
aa(lp46
I0
aI0
aI0
aI1
aI0
aI0
aI0
aI0
aI0
aa(lp47
I0
aI0
aI0
aI0
aI0
aI1
aI0
aI0
aI0
aa(lp48
F0.036631105996040074
aF0.12042111175049498
aF0.12042111175049498
aF0.12042111175049498
aF0.12042111175049498
aF0.12042111175049498
aF0.12042111175049498
aF0.12042111175049498
aF0.12042111175049498
aa(lp49
I0
aF0.16049567192099326
aF0.16049567192099326
aF0.16049567192099326
aF0.0370259684740403
aF0.16049567192099326
aF0.16049567192099326
aF0.16049567192099326
aI0
aa(lp50
I0
aF0.03625384938440364
aI0
aF0.2409365376538991
aI0
aF0.2409365376538991
aF0.2409365376538991
aF0.2409365376538991
aI0
aa(lp51
I0
aI0
aI0
aI0
aI0
aF0.48413956967265986
aF0.03172086065468016
aF0.48413956967265986
aI0
aa(lp52
I0
aF0.13697000082206498
aF0.13697000082206498
aF0.13697000082206498
aF0.13697000082206498
aF0.041209994245545084
aF0.13697000082206498
aF0.13697000082206498
aF0.13697000082206498
aa(lp53
I0
aF0.19136060735605726
aF0.19136060735605726
aF0.19136060735605726
aF0.04319696321971368
aI0
aF0.19136060735605726
aF0.19136060735605726
aI0
aa(lp54
I0
aF0.3182275627564985
aF0.3182275627564985
aI0
aI0
aI0
aF0.045317311730504545
aF0.3182275627564985
aI0
aa(lp55
I0
aF0.04758129098202024
aF0.9524187090179798
aI0
aI0
aI0
aI0
aI0
aI0
aa(lp56
F0.04371881558748517
aF0.11953514805156436
aF0.11953514805156436
aF0.11953514805156436
aF0.11953514805156436
aF0.11953514805156436
aF0.11953514805156436
aF0.11953514805156436
aF0.11953514805156436
aa(lp57
I0
aF0.15881714395322952
aF0.15881714395322952
aF0.15881714395322952
aF0.15881714395322952
aI0
aF0.15881714395322952
aF0.15881714395322952
aF0.04709713628062295
aa(lp58
I0
aF0.23704091103408592
aF0.23704091103408592
aF0.051836355863656425
aI0
aI0
aF0.23704091103408592
aF0.23704091103408592
aI0
aa(lp59
I0
aF0.46978845884633025
aF0.46978845884633025
aI0
aI0
aI0
aI0
aF0.06042308230733939
aI0
aa(lp60
I0
aI0
aF0.09516258196404048
aI0
aI0
aI0
aI0
aI0
aI0
aa(lp61
I0
aF0.1396201920192497
aF0.1396201920192497
aF0.1396201920192497
aF0.022658655865252272
aF0.1396201920192497
aF0.1396201920192497
aF0.1396201920192497
aF0.1396201920192497
aa(lp62
I0
aF0.01586043032734008
aF0.19682791393453197
aF0.19682791393453197
aI0
aF0.19682791393453197
aI0
aF0.19682791393453197
aF0.19682791393453197
aa(lp63
I1
aI0
aI0
aI0
aI0
aI0
aI0
aI0
aI0
aa(lp64
I0
aI0
aI0
aI0
aI0
aI0
aI1
aI0
aI0
aa(lp65
I0
aI0
aI0
aI1
aI0
aI0
aI0
aI0
aI0
aa(lp66
I0
aI0
aI0
aI0
aI0
aI1
aI0
aI0
aI0
aa(lp67
I0
aI0
aI0
aI0
aI0
aI0
aI0
aI0
aI1
aa(lp68
I0
aI0
aI1
aI0
aI0
aI0
aI0
aI0
aI0
aa(lp69
F0.028797975479809123
aF0.12140025306502385
aF0.12140025306502385
aF0.12140025306502385
aF0.12140025306502385
aF0.12140025306502385
aF0.12140025306502385
aF0.12140025306502385
aF0.12140025306502385
aa(lp70
I0
aF0.025895606703145453
aF0.1623507322161424
aF0.1623507322161424
aF0.1623507322161424
aI0
aF0.1623507322161424
aF0.1623507322161424
aF0.1623507322161424
aa(lp71
I0
aI0
aF0.24524187090179797
aF0.24524187090179797
aF0.24524187090179797
aI0
aF0.019032516392808098
aF0.24524187090179797
aI0
aa(lp72
I0
aI0
aI0
aI1
aI0
aI0
aI0
aI0
aI0
aa(lp73
I0
aI0
aI0
aI0
aI0
aI0
aI0
aI1
aI0
aa(lp74
I0
aI0
aI0
aI0
aI1
aI0
aI0
aI0
aI0
aa(lp75
I0
aI1
aI0
aI0
aI0
aI0
aI0
aI0
aI0
aa(lp76
F0.036631105996040074
aF0.12042111175049498
aF0.12042111175049498
aF0.12042111175049498
aF0.12042111175049498
aF0.12042111175049498
aF0.12042111175049498
aF0.12042111175049498
aF0.12042111175049498
aa(lp77
I0
aF0.16049567192099326
aF0.16049567192099326
aI0
aF0.16049567192099326
aF0.16049567192099326
aF0.0370259684740403
aF0.16049567192099326
aF0.16049567192099326
aa(lp78
I0
aF0.2409365376538991
aF0.2409365376538991
aI0
aF0.2409365376538991
aF0.03625384938440364
aI0
aI0
aF0.2409365376538991
aa(lp79
I0
aF0.48413956967265986
aF0.48413956967265986
aI0
aI0
aI0
aI0
aI0
aF0.03172086065468016
aa(lp80
I0
aF0.13697000082206498
aF0.041209994245545084
aF0.13697000082206498
aF0.13697000082206498
aF0.13697000082206498
aF0.13697000082206498
aF0.13697000082206498
aF0.13697000082206498
aa(lp81
I0
aF0.19136060735605726
aI0
aF0.19136060735605726
aF0.19136060735605726
aI0
aF0.19136060735605726
aF0.19136060735605726
aF0.04319696321971368
aa(lp82
I0
aF0.3182275627564985
aI0
aF0.3182275627564985
aF0.045317311730504545
aI0
aI0
aF0.3182275627564985
aI0
aa(lp83
I0
aI0
aI0
aF0.9524187090179798
aI0
aI0
aI0
aF0.04758129098202024
aI0
aa(lp84
I1
aI0
aI0
aI0
aI0
aI0
aI0
aI0
aI0
aa(lp85
I0
aI0
aI0
aI0
aI0
aI1
aI0
aI0
aI0
aa(lp86
I0
aI0
aI0
aI0
aI0
aI0
aI1
aI0
aI0
aa(lp87
I0
aI1
aI0
aI0
aI0
aI0
aI0
aI0
aI0
aa(lp88
I0
aI0
aI0
aI1
aI0
aI0
aI0
aI0
aI0
aa(lp89
I0
aF0.13697000082206498
aF0.13697000082206498
aF0.13697000082206498
aF0.13697000082206498
aF0.13697000082206498
aF0.13697000082206498
aF0.13697000082206498
aF0.041209994245545084
aa(lp90
I0
aF0.19136060735605726
aF0.04319696321971368
aF0.19136060735605726
aI0
aF0.19136060735605726
aF0.19136060735605726
aF0.19136060735605726
aI0
aa(lp91
I0
aF0.045317311730504545
aI0
aF0.3182275627564985
aI0
aF0.3182275627564985
aF0.3182275627564985
aI0
aI0
aa(lp92
I0
aI0
aI0
aI0
aI0
aF0.9524187090179798
aF0.04758129098202024
aI0
aI0
aa(lp93
I1
aI0
aI0
aI0
aI0
aI0
aI0
aI0
aI0
aa(lp94
I0
aI0
aI0
aI0
aI1
aI0
aI0
aI0
aI0
aa(lp95
I0
aI0
aI0
aI0
aI0
aI0
aI0
aI1
aI0
aa(lp96
I0
aI0
aI0
aI1
aI0
aI0
aI0
aI0
aI0
aa(lp97
I0
aI0
aI0
aI0
aI0
aI1
aI0
aI0
aI0
aa(lp98
I0
aF0.1396201920192497
aF0.1396201920192497
aF0.1396201920192497
aF0.1396201920192497
aF0.022658655865252272
aF0.1396201920192497
aF0.1396201920192497
aF0.1396201920192497
aa(lp99
I0
aF0.01586043032734008
aF0.19682791393453197
aF0.19682791393453197
aF0.19682791393453197
aI0
aI0
aF0.19682791393453197
aF0.19682791393453197
aa(lp100
I1
aI0
aI0
aI0
aI0
aI0
aI0
aI0
aI0
aa(lp101
I0
aI0
aI0
aI0
aI0
aI0
aI1
aI0
aI0
aa(lp102
I0
aI0
aI0
aI1
aI0
aI0
aI0
aI0
aI0
aa(lp103
I0
aI1
aI0
aI0
aI0
aI0
aI0
aI0
aI0
aa(lp104
I0
aI0
aI0
aI0
aI0
aI0
aI0
aI0
aI1
aa(lp105
I0
aI0
aI0
aI0
aI0
aI1
aI0
aI0
aI0
aa(lp106
I0
aI0
aI1
aI0
aI0
aI0
aI0
aI0
aI0
aa(lp107
F0.036631105996040074
aF0.12042111175049498
aF0.12042111175049498
aF0.12042111175049498
aF0.12042111175049498
aF0.12042111175049498
aF0.12042111175049498
aF0.12042111175049498
aF0.12042111175049498
aa(lp108
I0
aI0
aF0.16049567192099326
aF0.0370259684740403
aF0.16049567192099326
aF0.16049567192099326
aF0.16049567192099326
aF0.16049567192099326
aF0.16049567192099326
aa(lp109
I0
aI0
aF0.2409365376538991
aI0
aF0.2409365376538991
aF0.2409365376538991
aF0.2409365376538991
aF0.03625384938440364
aI0
aa(lp110
I0
aI0
aF0.48413956967265986
aI0
aF0.03172086065468016
aI0
aF0.48413956967265986
aI0
aI0
aa(lp111
I0
aI0
aI0
aI0
aI0
aI0
aI0
aI0
aI1
aa(lp112
I0
aI1
aI0
aI0
aI0
aI0
aI0
aI0
aI0
aa(lp113
I0
aI0
aI0
aI0
aI0
aI0
aI0
aI1
aI0
aa(lp114
I0
aI0
aI0
aI0
aI1
aI0
aI0
aI0
aI0
aa(lp115
F0.036631105996040074
aF0.12042111175049498
aF0.12042111175049498
aF0.12042111175049498
aF0.12042111175049498
aF0.12042111175049498
aF0.12042111175049498
aF0.12042111175049498
aF0.12042111175049498
aa(lp116
I0
aF0.16049567192099326
aF0.0370259684740403
aF0.16049567192099326
aF0.16049567192099326
aF0.16049567192099326
aF0.16049567192099326
aF0.16049567192099326
aI0
aa(lp117
I0
aI0
aI0
aF0.2409365376538991
aF0.2409365376538991
aF0.2409365376538991
aF0.03625384938440364
aF0.2409365376538991
aI0
aa(lp118
I0
aI0
aI0
aF0.48413956967265986
aF0.48413956967265986
aF0.03172086065468016
aI0
aI0
aI0
aa(lp119
I0
aF0.1396201920192497
aF0.1396201920192497
aF0.1396201920192497
aF0.022658655865252272
aF0.1396201920192497
aF0.1396201920192497
aF0.1396201920192497
aF0.1396201920192497
aa(lp120
I0
aF0.19682791393453197
aF0.19682791393453197
aI0
aI0
aF0.19682791393453197
aF0.19682791393453197
aF0.01586043032734008
aF0.19682791393453197
aa(lp121
I1
aI0
aI0
aI0
aI0
aI0
aI0
aI0
aI0
aa(lp122
I0
aI0
aI0
aI1
aI0
aI0
aI0
aI0
aI0
aa(lp123
I0
aI0
aI0
aI0
aI0
aI0
aI1
aI0
aI0
aa(lp124
I0
aI0
aI0
aI0
aI0
aI0
aI0
aI1
aI0
aa(lp125
I0
aI0
aI0
aI0
aI0
aI0
aI0
aI0
aI1
aa(lp126
I0
aI0
aI1
aI0
aI0
aI0
aI0
aI0
aI0
aa(lp127
I0
aI0
aI0
aI0
aI0
aI0
aI1
aI0
aI0
aa(lp128
F0.036631105996040074
aF0.12042111175049498
aF0.12042111175049498
aF0.12042111175049498
aF0.12042111175049498
aF0.12042111175049498
aF0.12042111175049498
aF0.12042111175049498
aF0.12042111175049498
aa(lp129
I0
aF0.16049567192099326
aF0.16049567192099326
aF0.16049567192099326
aF0.0370259684740403
aF0.16049567192099326
aF0.16049567192099326
aI0
aF0.16049567192099326
aa(lp130
I0
aF0.2409365376538991
aF0.2409365376538991
aF0.03625384938440364
aI0
aF0.2409365376538991
aF0.2409365376538991
aI0
aI0
aa(lp131
I0
aF0.03172086065468016
aI0
aI0
aI0
aF0.48413956967265986
aF0.48413956967265986
aI0
aI0
aa(lp132
I0
aF0.1396201920192497
aF0.1396201920192497
aF0.1396201920192497
aF0.1396201920192497
aF0.022658655865252272
aF0.1396201920192497
aF0.1396201920192497
aF0.1396201920192497
aa(lp133
I0
aF0.01586043032734008
aF0.19682791393453197
aF0.19682791393453197
aF0.19682791393453197
aI0
aI0
aF0.19682791393453197
aF0.19682791393453197
aa(lp134
I1
aI0
aI0
aI0
aI0
aI0
aI0
aI0
aI0
aa(lp135
I0
aI0
aI0
aI0
aI0
aI0
aI1
aI0
aI0
aa(lp136
I0
aI0
aI0
aI1
aI0
aI0
aI0
aI0
aI0
aa(lp137
I0
aI1
aI0
aI0
aI0
aI0
aI0
aI0
aI0
aa(lp138
I0
aI0
aI0
aI0
aI0
aI1
aI0
aI0
aI0
aa(lp139
I0
aI0
aI0
aI0
aI0
aI0
aI0
aI1
aI0
aa(lp140
I0
aI0
aI0
aI0
aI1
aI0
aI0
aI0
aI0
aa(lp141
F0.036631105996040074
aF0.12042111175049498
aF0.12042111175049498
aF0.12042111175049498
aF0.12042111175049498
aF0.12042111175049498
aF0.12042111175049498
aF0.12042111175049498
aF0.12042111175049498
aa(lp142
I0
aI0
aF0.16049567192099326
aF0.16049567192099326
aF0.16049567192099326
aF0.16049567192099326
aF0.16049567192099326
aF0.16049567192099326
aF0.0370259684740403
aa(lp143
I0
aI0
aF0.2409365376538991
aF0.03625384938440364
aF0.2409365376538991
aI0
aF0.2409365376538991
aF0.2409365376538991
aI0
aa(lp144
I0
aI0
aF0.03172086065468016
aI0
aF0.48413956967265986
aI0
aF0.48413956967265986
aI0
aI0
aa(lp145
I0
aF0.13697000082206498
aF0.13697000082206498
aF0.041209994245545084
aF0.13697000082206498
aF0.13697000082206498
aF0.13697000082206498
aF0.13697000082206498
aF0.13697000082206498
aa(lp146
I0
aI0
aF0.19136060735605726
aI0
aF0.19136060735605726
aF0.19136060735605726
aF0.19136060735605726
aF0.04319696321971368
aF0.19136060735605726
aa(lp147
I0
aI0
aF0.3182275627564985
aI0
aI0
aF0.3182275627564985
aF0.3182275627564985
aI0
aF0.045317311730504545
aa(lp148
I0
aI0
aF0.04758129098202024
aI0
aI0
aF0.9524187090179798
aI0
aI0
aI0
aa(lp149
F0.04371881558748517
aF0.11953514805156436
aF0.11953514805156436
aF0.11953514805156436
aF0.11953514805156436
aF0.11953514805156436
aF0.11953514805156436
aF0.11953514805156436
aF0.11953514805156436
aa(lp150
I0
aF0.04709713628062295
aF0.15881714395322952
aI0
aF0.15881714395322952
aF0.15881714395322952
aF0.15881714395322952
aF0.15881714395322952
aF0.15881714395322952
aa(lp151
I0
aI0
aF0.23704091103408592
aI0
aF0.051836355863656425
aF0.23704091103408592
aF0.23704091103408592
aI0
aF0.23704091103408592
aa(lp152
I0
aI0
aF0.46978845884633025
aI0
aI0
aF0.46978845884633025
aF0.06042308230733939
aI0
aI0
aa(lp153
I0
aI0
aI0
aI0
aI0
aF0.09516258196404048
aI0
aI0
aI0
aa(lp154
I0
aF0.1396201920192497
aF0.022658655865252272
aF0.1396201920192497
aF0.1396201920192497
aF0.1396201920192497
aF0.1396201920192497
aF0.1396201920192497
aF0.1396201920192497
aa(lp155
I0
aF0.01586043032734008
aI0
aF0.19682791393453197
aI0
aF0.19682791393453197
aF0.19682791393453197
aF0.19682791393453197
aF0.19682791393453197
aa(lp156
I1
aI0
aI0
aI0
aI0
aI0
aI0
aI0
aI0
aa(lp157
I0
aI0
aI0
aI0
aI1
aI0
aI0
aI0
aI0
aa(lp158
I0
aI0
aI0
aI0
aI0
aI0
aI0
aI0
aI1
aa(lp159
I0
aI0
aI0
aI0
aI1
aI0
aI0
aI0
aI0
aa(lp160
I0
aI0
aI0
aI0
aI0
aI0
aI0
aI1
aI0
aa(lp161
I0
aI1
aI0
aI0
aI0
aI0
aI0
aI0
aI0
aa(lp162
F0.028797975479809123
aF0.12140025306502385
aF0.12140025306502385
aF0.12140025306502385
aF0.12140025306502385
aF0.12140025306502385
aF0.12140025306502385
aF0.12140025306502385
aF0.12140025306502385
aa(lp163
I0
aF0.1623507322161424
aF0.025895606703145453
aF0.1623507322161424
aI0
aF0.1623507322161424
aF0.1623507322161424
aF0.1623507322161424
aF0.1623507322161424
aa(lp164
I0
aF0.24524187090179797
aI0
aF0.24524187090179797
aI0
aF0.24524187090179797
aF0.019032516392808098
aI0
aF0.24524187090179797
aa(lp165
I0
aF0.041209994245545084
aF0.13697000082206498
aF0.13697000082206498
aF0.13697000082206498
aF0.13697000082206498
aF0.13697000082206498
aF0.13697000082206498
aF0.13697000082206498
aa(lp166
I0
aI0
aF0.19136060735605726
aF0.19136060735605726
aI0
aF0.19136060735605726
aF0.04319696321971368
aF0.19136060735605726
aF0.19136060735605726
aa(lp167
I0
aI0
aF0.3182275627564985
aF0.3182275627564985
aI0
aF0.3182275627564985
aI0
aI0
aF0.045317311730504545
aa(lp168
I0
aI0
aI0
aF0.9524187090179798
aI0
aF0.04758129098202024
aI0
aI0
aI0
aa(lp169
F0.04371881558748517
aF0.11953514805156436
aF0.11953514805156436
aF0.11953514805156436
aF0.11953514805156436
aF0.11953514805156436
aF0.11953514805156436
aF0.11953514805156436
aF0.11953514805156436
aa(lp170
I0
aI0
aF0.15881714395322952
aF0.15881714395322952
aF0.04709713628062295
aF0.15881714395322952
aF0.15881714395322952
aF0.15881714395322952
aF0.15881714395322952
aa(lp171
I0
aI0
aF0.23704091103408592
aF0.23704091103408592
aI0
aF0.23704091103408592
aI0
aF0.051836355863656425
aF0.23704091103408592
aa(lp172
I0
aI0
aF0.06042308230733939
aF0.46978845884633025
aI0
aF0.46978845884633025
aI0
aI0
aI0
aa(lp173
I0
aI0
aI0
aF0.09516258196404048
aI0
aI0
aI0
aI0
aI0
aa(lp174
I0
aF0.1396201920192497
aF0.1396201920192497
aF0.1396201920192497
aF0.1396201920192497
aF0.1396201920192497
aF0.022658655865252272
aF0.1396201920192497
aF0.1396201920192497
aa(lp175
I0
aF0.19682791393453197
aF0.01586043032734008
aF0.19682791393453197
aF0.19682791393453197
aF0.19682791393453197
aI0
aF0.19682791393453197
aI0
aa(lp176
I1
aI0
aI0
aI0
aI0
aI0
aI0
aI0
aI0
aa(lp177
I0
aI0
aI0
aI0
aI0
aI0
aI0
aI0
aI1
aa(lp178
I0
aI0
aI0
aI0
aI1
aI0
aI0
aI0
aI0
aa(lp179
I0
aF0.13697000082206498
aF0.13697000082206498
aF0.041209994245545084
aF0.13697000082206498
aF0.13697000082206498
aF0.13697000082206498
aF0.13697000082206498
aF0.13697000082206498
aa(lp180
I0
aF0.04319696321971368
aF0.19136060735605726
aI0
aF0.19136060735605726
aF0.19136060735605726
aF0.19136060735605726
aI0
aF0.19136060735605726
aa(lp181
I0
aI0
aF0.3182275627564985
aI0
aF0.3182275627564985
aI0
aF0.045317311730504545
aI0
aF0.3182275627564985
aa(lp182
I0
aI0
aF0.9524187090179798
aI0
aI0
aI0
aI0
aI0
aF0.04758129098202024
aa(lp183
F0.04371881558748517
aF0.11953514805156436
aF0.11953514805156436
aF0.11953514805156436
aF0.11953514805156436
aF0.11953514805156436
aF0.11953514805156436
aF0.11953514805156436
aF0.11953514805156436
aa(lp184
I0
aF0.15881714395322952
aF0.15881714395322952
aI0
aF0.15881714395322952
aF0.15881714395322952
aF0.15881714395322952
aF0.04709713628062295
aF0.15881714395322952
aa(lp185
I0
aI0
aF0.23704091103408592
aI0
aF0.23704091103408592
aF0.051836355863656425
aF0.23704091103408592
aI0
aF0.23704091103408592
aa(lp186
I0
aI0
aF0.46978845884633025
aI0
aF0.06042308230733939
aI0
aI0
aI0
aF0.46978845884633025
aa(lp187
I0
aI0
aF0.09516258196404048
aI0
aI0
aI0
aI0
aI0
aI0
aa(lp188
I0
aI0
aI0
aI1
aI0
aI0
aI0
aI0
aI0
aa(lp189
I0
aI0
aI0
aI0
aI1
aI0
aI0
aI0
aI0
aa(lp190
I0
aI0
aI0
aI0
aI0
aI0
aI0
aI1
aI0
aa(lp191
I0
aI1
aI0
aI0
aI0
aI0
aI0
aI0
aI0
aa(lp192
F0.036631105996040074
aF0.12042111175049498
aF0.12042111175049498
aF0.12042111175049498
aF0.12042111175049498
aF0.12042111175049498
aF0.12042111175049498
aF0.12042111175049498
aF0.12042111175049498
aa(lp193
I0
aF0.16049567192099326
aF0.16049567192099326
aI0
aF0.16049567192099326
aF0.0370259684740403
aF0.16049567192099326
aF0.16049567192099326
aF0.16049567192099326
aa(lp194
I0
aF0.2409365376538991
aF0.2409365376538991
aI0
aI0
aI0
aF0.2409365376538991
aF0.2409365376538991
aF0.03625384938440364
aa(lp195
I0
aF0.48413956967265986
aF0.48413956967265986
aI0
aI0
aI0
aF0.03172086065468016
aI0
aI0
aa(lp196
I0
aF0.13822889679788783
aF0.13822889679788783
aF0.13822889679788783
aF0.13822889679788783
aF0.13822889679788783
aF0.13822889679788783
aF0.13822889679788783
aF0.032397722414785265
aa(lp197
I0
aF0.030211541153669697
aF0.19395769176926606
aF0.19395769176926606
aI0
aF0.19395769176926606
aF0.19395769176926606
aF0.19395769176926606
aI0
aa(lp198
I0
aI0
aF0.3254031181696633
aI0
aI0
aF0.3254031181696633
aF0.02379064549101012
aF0.3254031181696633
aI0
aa(lp199
I1
aI0
aI0
aI0
aI0
aI0
aI0
aI0
aI0
aa(lp200
I0
aI0
aI0
aI0
aI1
aI0
aI0
aI0
aI0
aa(lp201
I0
aI0
aI0
aI1
aI0
aI0
aI0
aI0
aI0
aa(lp202
I0
aI0
aI0
aI0
aI0
aI1
aI0
aI0
aI0
aa(lp203
I0
aF0.13822889679788783
aF0.13822889679788783
aF0.032397722414785265
aF0.13822889679788783
aF0.13822889679788783
aF0.13822889679788783
aF0.13822889679788783
aF0.13822889679788783
aa(lp204
I0
aF0.19395769176926606
aI0
aI0
aF0.19395769176926606
aF0.030211541153669697
aF0.19395769176926606
aF0.19395769176926606
aF0.19395769176926606
aa(lp205
I0
aF0.3254031181696633
aI0
aI0
aF0.3254031181696633
aI0
aF0.02379064549101012
aF0.3254031181696633
aI0
aa(lp206
I1
aI0
aI0
aI0
aI0
aI0
aI0
aI0
aI0
aa(lp207
I0
aI0
aI1
aI0
aI0
aI0
aI0
aI0
aI0
aa(lp208
I0
aI0
aI0
aI0
aI0
aI0
aI0
aI0
aI1
aa(lp209
I0
aI1
aI0
aI0
aI0
aI0
aI0
aI0
aI0
aa(lp210
I0
aF0.13697000082206498
aF0.13697000082206498
aF0.13697000082206498
aF0.13697000082206498
aF0.13697000082206498
aF0.041209994245545084
aF0.13697000082206498
aF0.13697000082206498
aa(lp211
I0
aF0.04319696321971368
aF0.19136060735605726
aI0
aF0.19136060735605726
aF0.19136060735605726
aI0
aF0.19136060735605726
aF0.19136060735605726
aa(lp212
I0
aI0
aF0.3182275627564985
aI0
aF0.3182275627564985
aF0.3182275627564985
aI0
aI0
aF0.045317311730504545
aa(lp213
I0
aI0
aI0
aI0
aF0.9524187090179798
aF0.04758129098202024
aI0
aI0
aI0
aa(lp214
F0.04371881558748517
aF0.11953514805156436
aF0.11953514805156436
aF0.11953514805156436
aF0.11953514805156436
aF0.11953514805156436
aF0.11953514805156436
aF0.11953514805156436
aF0.11953514805156436
aa(lp215
I0
aF0.15881714395322952
aF0.15881714395322952
aF0.04709713628062295
aF0.15881714395322952
aF0.15881714395322952
aI0
aF0.15881714395322952
aF0.15881714395322952
aa(lp216
I0
aI0
aF0.23704091103408592
aI0
aF0.23704091103408592
aF0.23704091103408592
aI0
aF0.051836355863656425
aF0.23704091103408592
aa(lp217
I0
aI0
aF0.06042308230733939
aI0
aF0.46978845884633025
aF0.46978845884633025
aI0
aI0
aI0
aa(lp218
I0
aI0
aI0
aI0
aF0.09516258196404048
aI0
aI0
aI0
aI0
aa.