(lp0
(lp1
F0.13822889679788783
aF0.13822889679788783
aF0.13822889679788783
aF0.13822889679788783
aF0.032397722414785265
aF0.13822889679788783
aF0.13822889679788783
aF0.13822889679788783
aI0
aa(lp2
F0.030211541153669697
aF0.19395769176926606
aF0.19395769176926606
aF0.19395769176926606
aI0
aF0.19395769176926606
aF0.19395769176926606
aI0
aI0
aa(lp3
I0
aF0.3254031181696633
aF0.02379064549101012
aF0.3254031181696633
aI0
aI0
aF0.3254031181696633
aI0
aI0
aa(lp4
I0
aI0
aI0
aI0
aI0
aI0
aI0
aI0
aI1
aa(lp5
I0
aI0
aI0
aI0
aI0
aI0
aI0
aI1
aI0
aa(lp6
I0
aI0
aI0
aI0
aI0
aI1
aI0
aI0
aI0
aa(lp7
I0
aI0
aI0
aI0
aI0
aI0
aI1
aI0
aI0
aa(lp8
F0.13822889679788783
aF0.032397722414785265
aI0
aF0.13822889679788783
aF0.13822889679788783
aF0.13822889679788783
aF0.13822889679788783
aF0.13822889679788783
aF0.13822889679788783
aa(lp9
F0.030211541153669697
aI0
aI0
aF0.19395769176926606
aF0.19395769176926606
aF0.19395769176926606
aI0
aF0.19395769176926606
aF0.19395769176926606
aa(lp10
I0
aI0
aI0
aF0.02379064549101012
aF0.3254031181696633
aI0
aI0
aF0.3254031181696633
aF0.3254031181696633
aa(lp11
I0
aI0
aI1
aI0
aI0
aI0
aI0
aI0
aI0
aa(lp12
I0
aI0
aI0
aI0
aI0
aI0
aI1
aI0
aI0
aa(lp13
I0
aI0
aI0
aI0
aI0
aI1
aI0
aI0
aI0
aa(lp14
I0
aI0
aI0
aI0
aI0
aI0
aI0
aI0
aI1
aa(lp15
F0.032397722414785265
aF0.13822889679788783
aF0.13822889679788783
aF0.13822889679788783
aF0.13822889679788783
aF0.13822889679788783
aF0.13822889679788783
aI0
aF0.13822889679788783
aa(lp16
I0
aI0
aF0.030211541153669697
aF0.19395769176926606
aF0.19395769176926606
aF0.19395769176926606
aF0.19395769176926606
aI0
aF0.19395769176926606
aa(lp17
I0
aI0
aI0
aF0.3254031181696633
aF0.3254031181696633
aF0.3254031181696633
aI0
aI0
aF0.02379064549101012
aa(lp18
I0
aI0
aI0
aI0
aI0
aI0
aI0
aI1
aI0
aa(lp19
I0
aI1
aI0
aI0
aI0
aI0
aI0
aI0
aI0
aa(lp20
I0
aI0
aI0
aI0
aI0
aI0
aI1
aI0
aI0
aa(lp21
I0
aI0
aI0
aI0
aI1
aI0
aI0
aI0
aI0
aa(lp22
I0
aF0.13822889679788783
aF0.13822889679788783
aF0.13822889679788783
aF0.13822889679788783
aF0.13822889679788783
aF0.032397722414785265
aF0.13822889679788783
aF0.13822889679788783
aa(lp23
I0
aI0
aF0.19395769176926606
aF0.19395769176926606
aF0.19395769176926606
aF0.19395769176926606
aI0
aF0.030211541153669697
aF0.19395769176926606
aa(lp24
I0
aI0
aF0.3254031181696633
aF0.02379064549101012
aF0.3254031181696633
aF0.3254031181696633
aI0
aI0
aI0
aa(lp25
I1
aI0
aI0
aI0
aI0
aI0
aI0
aI0
aI0
aa(lp26
I0
aI1
aI0
aI0
aI0
aI0
aI0
aI0
aI0
aa(lp27
I0
aI0
aI0
aI0
aI0
aI0
aI0
aI0
aI1
aa(lp28
I0
aI0
aI0
aI0
aI1
aI0
aI0
aI0
aI0
aa(lp29
F0.1396201920192497
aI0
aF0.1396201920192497
aF0.1396201920192497
aF0.1396201920192497
aF0.022658655865252272
aF0.1396201920192497
aF0.1396201920192497
aF0.1396201920192497
aa(lp30
F0.19682791393453197
aI0
aF0.01586043032734008
aF0.19682791393453197
aF0.19682791393453197
aI0
aF0.19682791393453197
aI0
aF0.19682791393453197
aa(lp31
I0
aI1
aI0
aI0
aI0
aI0
aI0
aI0
aI0
aa(lp32
I0
aI0
aI0
aI0
aI0
aI0
aI0
aI1
aI0
aa(lp33
I0
aI0
aI0
aI0
aI1
aI0
aI0
aI0
aI0
aa(lp34
I0
aI0
aI0
aI1
aI0
aI0
aI0
aI0
aI0
aa(lp35
I1
aI0
aI0
aI0
aI0
aI0
aI0
aI0
aI0
aa(lp36
I0
aI0
aI0
aI0
aI0
aI1
aI0
aI0
aI0
aa(lp37
I0
aI0
aI0
aI0
aI0
aI0
aI1
aI0
aI0
aa(lp38
F0.12042111175049498
aF0.12042111175049498
aF0.12042111175049498
aF0.12042111175049498
aF0.036631105996040074
aF0.12042111175049498
aF0.12042111175049498
aF0.12042111175049498
aF0.12042111175049498
aa(lp39
F0.16049567192099326
aF0.16049567192099326
aF0.0370259684740403
aI0
aI0
aF0.16049567192099326
aF0.16049567192099326
aF0.16049567192099326
aF0.16049567192099326
aa(lp40
I0
aF0.2409365376538991
aI0
aI0
aI0
aF0.2409365376538991
aF0.2409365376538991
aF0.2409365376538991
aF0.03625384938440364
aa(lp41
I0
aF0.48413956967265986
aI0
aI0
aI0
aI0
aF0.48413956967265986
aF0.03172086065468016
aI0
aa(lp42
I1
aI0
aI0
aI0
aI0
aI0
aI0
aI0
aI0
aa(lp43
I0
aI0
aI1
aI0
aI0
aI0
aI0
aI0
aI0
aa(lp44
I0
aI1
aI0
aI0
aI0
aI0
aI0
aI0
aI0
aa(lp45
F0.12140025306502385
aF0.12140025306502385
aF0.12140025306502385
aF0.12140025306502385
aF0.12140025306502385
aF0.12140025306502385
aF0.12140025306502385
aF0.12140025306502385
aF0.028797975479809123
aa(lp46
I0
aF0.1623507322161424
aF0.1623507322161424
aF0.1623507322161424
aF0.025895606703145453
aF0.1623507322161424
aF0.1623507322161424
aF0.1623507322161424
aI0
aa(lp47
I0
aF0.24524187090179797
aI0
aF0.019032516392808098
aI0
aF0.24524187090179797
aF0.24524187090179797
aF0.24524187090179797
aI0
aa(lp48
F0.13697000082206498
aF0.13697000082206498
aF0.13697000082206498
aI0
aF0.041209994245545084
aF0.13697000082206498
aF0.13697000082206498
aF0.13697000082206498
aF0.13697000082206498
aa(lp49
F0.04319696321971368
aF0.19136060735605726
aF0.19136060735605726
aI0
aI0
aI0
aF0.19136060735605726
aF0.19136060735605726
aF0.19136060735605726
aa(lp50
I0
aF0.3182275627564985
aF0.3182275627564985
aI0
aI0
aI0
aF0.045317311730504545
aI0
aF0.3182275627564985
aa(lp51
I0
aF0.04758129098202024
aI0
aI0
aI0
aI0
aI0
aI0
aF0.9524187090179798
aa(lp52
I0
aI0
aI0
aI1
aI0
aI0
aI0
aI0
aI0
aa(lp53
I0
aI0
aI0
aI0
aI0
aI1
aI0
aI0
aI0
aa(lp54
I0
aI0
aI0
aI0
aI0
aI0
aI0
aI1
aI0
aa(lp55
I0
aI0
aI1
aI0
aI0
aI0
aI0
aI0
aI0
aa(lp56
I0
aI0
aI0
aI0
aI0
aI0
aI0
aI0
aI1
aa(lp57
I0
aI0
aI0
aI0
aI0
aI1
aI0
aI0
aI0
aa(lp58
I0
aI0
aI0
aI0
aI1
aI0
aI0
aI0
aI0
aa(lp59
I0
aI0
aI0
aI0
aI0
aI0
aI0
aI1
aI0
aa(lp60
I1
aI0
aI0
aI0
aI0
aI0
aI0
aI0
aI0
aa(lp61
I0
aI1
aI0
aI0
aI0
aI0
aI0
aI0
aI0
aa(lp62
I0
aI0
aI1
aI0
aI0
aI0
aI0
aI0
aI0
aa(lp63
I0
aI0
aI0
aI0
aI0
aI0
aI0
aI0
aI1
aa(lp64
I0
aI0
aI0
aI1
aI0
aI0
aI0
aI0
aI0
aa(lp65
I0
aI0
aI0
aI0
aI0
aI0
aI1
aI0
aI0
aa(lp66
F0.13697000082206498
aI0
aF0.041209994245545084
aF0.13697000082206498
aF0.13697000082206498
aF0.13697000082206498
aF0.13697000082206498
aF0.13697000082206498
aF0.13697000082206498
aa(lp67
F0.19136060735605726
aI0
aI0
aF0.19136060735605726
aF0.04319696321971368
aF0.19136060735605726
aF0.19136060735605726
aF0.19136060735605726
aI0
aa(lp68
F0.045317311730504545
aI0
aI0
aF0.3182275627564985
aI0
aF0.3182275627564985
aF0.3182275627564985
aI0
aI0
aa(lp69
I0
aI0
aI0
aI0
aI0
aF0.04758129098202024
aF0.9524187090179798
aI0
aI0
aa(lp70
I0
aI1
aI0
aI0
aI0
aI0
aI0
aI0
aI0
aa(lp71
I0
aI0
aI0
aI0
aI0
aI0
aI0
aI0
aI1
aa(lp72
I0
aI0
aI0
aI0
aI0
aI0
aI0
aI1
aI0
aa(lp73
I0
aI0
aI0
aI1
aI0
aI0
aI0
aI0
aI0
aa(lp74
I0
aI0
aI0
aI0
aI0
aI0
aI1
aI0
aI0
aa(lp75
F0.13822889679788783
aF0.13822889679788783
aI0
aF0.13822889679788783
aF0.13822889679788783
aF0.13822889679788783
aF0.13822889679788783
aF0.032397722414785265
aF0.13822889679788783
aa(lp76
F0.19395769176926606
aF0.19395769176926606
aI0
aF0.19395769176926606
aI0
aF0.19395769176926606
aF0.030211541153669697
aI0
aF0.19395769176926606
aa(lp77
F0.02379064549101012
aF0.3254031181696633
aI0
aI0
aI0
aF0.3254031181696633
aI0
aI0
aF0.3254031181696633
aa(lp78
I0
aI0
aI1
aI0
aI0
aI0
aI0
aI0
aI0
aa(lp79
I0
aI0
aI0
aI0
aI1
aI0
aI0
aI0
aI0
aa(lp80
I0
aI0
aI0
aI1
aI0
aI0
aI0
aI0
aI0
aa(lp81
I0
aI0
aI0
aI0
aI0
aI1
aI0
aI0
aI0
aa(lp82
F0.13822889679788783
aF0.13822889679788783
aF0.13822889679788783
aF0.13822889679788783
aF0.13822889679788783
aI0
aF0.032397722414785265
aF0.13822889679788783
aF0.13822889679788783
aa(lp83
F0.19395769176926606
aI0
aF0.030211541153669697
aF0.19395769176926606
aF0.19395769176926606
aI0
aI0
aF0.19395769176926606
aF0.19395769176926606
aa(lp84
F0.3254031181696633
aI0
aI0
aI0
aF0.3254031181696633
aI0
aI0
aF0.02379064549101012
aF0.3254031181696633
aa(lp85
I0
aI0
aI0
aI0
aI0
aI1
aI0
aI0
aI0
aa(lp86
I0
aI1
aI0
aI0
aI0
aI0
aI0
aI0
aI0
aa(lp87
I0
aI0
aI0
aI1
aI0
aI0
aI0
aI0
aI0
aa(lp88
I0
aI0
aI0
aI0
aI1
aI0
aI0
aI0
aI0
aa(lp89
F0.13697000082206498
aF0.041209994245545084
aF0.13697000082206498
aF0.13697000082206498
aF0.13697000082206498
aF0.13697000082206498
aF0.13697000082206498
aI0
aF0.13697000082206498
aa(lp90
F0.19136060735605726
aI0
aF0.19136060735605726
aF0.04319696321971368
aI0
aF0.19136060735605726
aF0.19136060735605726
aI0
aF0.19136060735605726
aa(lp91
F0.3182275627564985
aI0
aF0.3182275627564985
aI0
aI0
aF0.045317311730504545
aF0.3182275627564985
aI0
aI0
aa(lp92
F0.9524187090179798
aI0
aI0
aI0
aI0
aI0
aF0.04758129098202024
aI0
aI0
aa(lp93
I0
aI0
aI0
aI0
aI0
aI0
aI0
aI1
aI0
aa(lp94
I0
aI0
aI0
aI0
aI1
aI0
aI0
aI0
aI0
aa(lp95
I0
aI0
aI0
aI0
aI0
aI0
aI0
aI0
aI1
aa(lp96
I0
aI0
aI1
aI0
aI0
aI0
aI0
aI0
aI0
aa(lp97
I1
aI0
aI0
aI0
aI0
aI0
aI0
aI0
aI0
aa(lp98
F0.13697000082206498
aI0
aF0.13697000082206498
aF0.13697000082206498
aF0.13697000082206498
aF0.13697000082206498
aF0.13697000082206498
aF0.041209994245545084
aF0.13697000082206498
aa(lp99
F0.19136060735605726
aI0
aF0.19136060735605726
aF0.19136060735605726
aF0.19136060735605726
aF0.04319696321971368
aI0
aI0
aF0.19136060735605726
aa(lp100
F0.3182275627564985
aI0
aF0.3182275627564985
aF0.3182275627564985
aF0.045317311730504545
aI0
aI0
aI0
aI0
aa(lp101
F0.9524187090179798
aI0
aF0.04758129098202024
aI0
aI0
aI0
aI0
aI0
aI0
aa(lp102
I0
aI1
aI0
aI0
aI0
aI0
aI0
aI0
aI0
aa(lp103
I0
aI0
aI0
aI0
aI0
aI0
aI1
aI0
aI0
aa(lp104
I0
aI0
aI0
aI0
aI0
aI0
aI0
aI0
aI1
aa(lp105
I0
aI0
aI0
aI1
aI0
aI0
aI0
aI0
aI0
aa(lp106
I1
aI0
aI0
aI0
aI0
aI0
aI0
aI0
aI0
aa(lp107
F0.13697000082206498
aF0.13697000082206498
aF0.13697000082206498
aI0
aF0.13697000082206498
aF0.13697000082206498
aF0.041209994245545084
aF0.13697000082206498
aF0.13697000082206498
aa(lp108
F0.19136060735605726
aI0
aF0.19136060735605726
aI0
aF0.04319696321971368
aF0.19136060735605726
aI0
aF0.19136060735605726
aF0.19136060735605726
aa(lp109
I0
aI0
aF0.3182275627564985
aI0
aI0
aF0.3182275627564985
aI0
aF0.3182275627564985
aF0.045317311730504545
aa(lp110
I0
aI0
aF0.9524187090179798
aI0
aI0
aF0.04758129098202024
aI0
aI0
aI0
aa(lp111
I0
aI0
aI0
aI1
aI0
aI0
aI0
aI0
aI0
aa(lp112
I0
aI1
aI0
aI0
aI0
aI0
aI0
aI0
aI0
aa(lp113
I1
aI0
aI0
aI0
aI0
aI0
aI0
aI0
aI0
aa(lp114
I0
aI0
aI0
aI0
aI0
aI0
aI0
aI1
aI0
aa(lp115
I0
aI0
aI1
aI0
aI0
aI0
aI0
aI0
aI0
aa(lp116
F0.13697000082206498
aI0
aF0.13697000082206498
aF0.13697000082206498
aF0.13697000082206498
aF0.13697000082206498
aF0.041209994245545084
aF0.13697000082206498
aF0.13697000082206498
aa(lp117
F0.19136060735605726
aI0
aF0.19136060735605726
aF0.19136060735605726
aF0.19136060735605726
aF0.19136060735605726
aI0
aF0.04319696321971368
aI0
aa(lp118
F0.3182275627564985
aI0
aF0.045317311730504545
aI0
aF0.3182275627564985
aF0.3182275627564985
aI0
aI0
aI0
aa(lp119
F0.04758129098202024
aI0
aI0
aI0
aI0
aF0.9524187090179798
aI0
aI0
aI0
aa(lp120
I0
aI1
aI0
aI0
aI0
aI0
aI0
aI0
aI0
aa(lp121
I0
aI0
aI0
aI0
aI0
aI0
aI0
aI0
aI1
aa(lp122
I0
aI0
aI0
aI1
aI0
aI0
aI0
aI0
aI0
aa(lp123
I0
aI0
aI0
aI0
aI1
aI0
aI0
aI0
aI0
aa(lp124
I0
aI0
aI0
aI0
aI0
aI1
aI0
aI0
aI0
aa(lp125
F0.13697000082206498
aF0.041209994245545084
aF0.13697000082206498
aI0
aF0.13697000082206498
aF0.13697000082206498
aF0.13697000082206498
aF0.13697000082206498
aF0.13697000082206498
aa(lp126
F0.19136060735605726
aI0
aI0
aI0
aF0.19136060735605726
aF0.19136060735605726
aF0.04319696321971368
aF0.19136060735605726
aF0.19136060735605726
aa(lp127
F0.3182275627564985
aI0
aI0
aI0
aF0.3182275627564985
aF0.045317311730504545
aI0
aF0.3182275627564985
aI0
aa(lp128
I0
aI0
aI0
aI0
aF0.9524187090179798
aI0
aI0
aF0.04758129098202024
aI0
aa(lp129
I0
aI0
aI0
aI1
aI0
aI0
aI0
aI0
aI0
aa(lp130
I0
aI0
aI1
aI0
aI0
aI0
aI0
aI0
aI0
aa(lp131
I0
aI0
aI0
aI0
aI0
aI0
aI0
aI0
aI1
aa(lp132
I1
aI0
aI0
aI0
aI0
aI0
aI0
aI0
aI0
aa(lp133
I0
aI0
aI0
aI0
aI1
aI0
aI0
aI0
aI0
aa(lp134
I0
aI1
aI0
aI0
aI0
aI0
aI0
aI0
aI0
aa(lp135
I0
aI0
aI1
aI0
aI0
aI0
aI0
aI0
aI0
aa(lp136
I0
aI0
aI0
aI0
aI1
aI0
aI0
aI0
aI0
aa(lp137
I0
aI0
aI0
aI0
aI0
aI0
aI1
aI0
aI0
aa(lp138
F0.12042111175049498
aF0.12042111175049498
aF0.12042111175049498
aF0.12042111175049498
aF0.12042111175049498
aF0.12042111175049498
aF0.12042111175049498
aF0.036631105996040074
aF0.12042111175049498
aa(lp139
F0.16049567192099326
aI0
aF0.16049567192099326
aF0.16049567192099326
aF0.16049567192099326
aF0.0370259684740403
aF0.16049567192099326
aI0
aF0.16049567192099326
aa(lp140
F0.03625384938440364
aI0
aI0
aF0.2409365376538991
aF0.2409365376538991
aI0
aF0.2409365376538991
aI0
aF0.2409365376538991
aa(lp141
I0
aI0
aI0
aF0.48413956967265986
aI0
aI0
aF0.48413956967265986
aI0
aF0.03172086065468016
aa(lp142
F0.13822889679788783
aF0.13822889679788783
aF0.13822889679788783
aF0.13822889679788783
aF0.13822889679788783
aI0
aF0.13822889679788783
aF0.032397722414785265
aF0.13822889679788783
aa(lp143
F0.19395769176926606
aF0.030211541153669697
aF0.19395769176926606
aF0.19395769176926606
aF0.19395769176926606
aI0
aF0.19395769176926606
aI0
aI0
aa(lp144
F0.3254031181696633
aI0
aF0.3254031181696633
aF0.3254031181696633
aI0
aI0
aF0.02379064549101012
aI0
aI0
aa(lp145
I0
aI0
aI0
aI0
aI0
aI1
aI0
aI0
aI0
aa(lp146
I0
aI0
aI0
aI0
aI0
aI0
aI0
aI0
aI1
aa(lp147
I0
aI0
aI0
aI0
aI1
aI0
aI0
aI0
aI0
aa(lp148
I1
aI0
aI0
aI0
aI0
aI0
aI0
aI0
aI0
aa(lp149
F0.13822889679788783
aF0.13822889679788783
aF0.13822889679788783
aF0.032397722414785265
aF0.13822889679788783
aF0.13822889679788783
aF0.13822889679788783
aF0.13822889679788783
aI0
aa(lp150
F0.19395769176926606
aF0.19395769176926606
aF0.19395769176926606
aI0
aF0.19395769176926606
aF0.19395769176926606
aI0
aF0.030211541153669697
aI0
aa(lp151
F0.3254031181696633
aF0.3254031181696633
aF0.02379064549101012
aI0
aI0
aF0.3254031181696633
aI0
aI0
aI0
aa(lp152
I0
aI0
aI0
aI0
aI0
aI0
aI0
aI0
aI1
aa(lp153
I0
aI0
aI0
aI0
aI0
aI0
aI1
aI0
aI0
aa(lp154
I0
aI0
aI0
aI0
aI1
aI0
aI0
aI0
aI0
aa(lp155
I1
aI0
aI0
aI0
aI0
aI0
aI0
aI0
aI0
aa(lp156
F0.13697000082206498
aF0.13697000082206498
aF0.13697000082206498
aF0.041209994245545084
aF0.13697000082206498
aF0.13697000082206498
aF0.13697000082206498
aI0
aF0.13697000082206498
aa(lp157
F0.19136060735605726
aI0
aF0.19136060735605726
aI0
aF0.19136060735605726
aF0.19136060735605726
aF0.19136060735605726
aI0
aF0.04319696321971368
aa(lp158
F0.3182275627564985
aI0
aI0
aI0
aF0.3182275627564985
aF0.3182275627564985
aF0.045317311730504545
aI0
aI0
aa(lp159
F0.9524187090179798
aI0
aI0
aI0
aF0.04758129098202024
aI0
aI0
aI0
aI0
aa(lp160
I0
aI0
aI0
aI0
aI0
aI0
aI0
aI1
aI0
aa(lp161
I0
aI1
aI0
aI0
aI0
aI0
aI0
aI0
aI0
aa(lp162
I0
aI0
aI1
aI0
aI0
aI0
aI0
aI0
aI0
aa(lp163
I0
aI0
aI0
aI0
aI0
aI1
aI0
aI0
aI0
aa(lp164
I1
aI0
aI0
aI0
aI0
aI0
aI0
aI0
aI0
aa(lp165
I1
aI0
aI0
aI0
aI0
aI0
aI0
aI0
aI0
aa(lp166
I0
aI0
aI0
aI0
aI0
aI0
aI0
aI1
aI0
aa(lp167
I0
aI0
aI0
aI0
aI1
aI0
aI0
aI0
aI0
aa(lp168
I0
aI0
aI1
aI0
aI0
aI0
aI0
aI0
aI0
aa(lp169
I0
aI0
aI0
aI0
aI0
aI0
aI1
aI0
aI0
aa(lp170
I0
aI0
aI0
aI0
aI0
aI0
aI0
aI0
aI1
aa(lp171
I0
aI1
aI0
aI0
aI0
aI0
aI0
aI0
aI0
aa(lp172
I0
aI0
aI0
aI0
aI0
aI1
aI0
aI0
aI0
aa(lp173
I0
aI0
aI0
aI1
aI0
aI0
aI0
aI0
aI0
aa(lp174
F0.13822889679788783
aF0.13822889679788783
aF0.032397722414785265
aI0
aF0.13822889679788783
aF0.13822889679788783
aF0.13822889679788783
aF0.13822889679788783
aF0.13822889679788783
aa(lp175
F0.19395769176926606
aF0.030211541153669697
aI0
aI0
aF0.19395769176926606
aF0.19395769176926606
aF0.19395769176926606
aF0.19395769176926606
aI0
aa(lp176
F0.3254031181696633
aI0
aI0
aI0
aI0
aF0.3254031181696633
aF0.02379064549101012
aF0.3254031181696633
aI0
aa(lp177
I0
aI0
aI0
aI1
aI0
aI0
aI0
aI0
aI0
aa(lp178
I0
aI0
aI0
aI0
aI0
aI0
aI0
aI0
aI1
aa(lp179
I0
aI0
aI0
aI0
aI1
aI0
aI0
aI0
aI0
aa(lp180
I0
aI0
aI0
aI0
aI0
aI1
aI0
aI0
aI0
aa(lp181
I0
aI1
aI0
aI0
aI0
aI0
aI0
aI0
aI0
aa(lp182
I0
aI0
aI0
aI0
aI0
aI0
aI1
aI0
aI0
aa(lp183
I0
aI0
aI0
aI0
aI1
aI0
aI0
aI0
aI0
aa(lp184
I0
aI0
aI0
aI0
aI0
aI1
aI0
aI0
aI0
aa(lp185
I0
aI0
aI0
aI0
aI0
aI0
aI0
aI0
aI1
aa(lp186
I1
aI0
aI0
aI0
aI0
aI0
aI0
aI0
aI0
aa(lp187
I0
aI0
aI1
aI0
aI0
aI0
aI0
aI0
aI0
aa(lp188
I0
aI0
aI0
aI0
aI0
aI0
aI0
aI1
aI0
aa(lp189
I0
aI0
aI0
aI1
aI0
aI0
aI0
aI0
aI0
aa(lp190
I0
aI0
aI0
aI0
aI0
aI0
aI0
aI0
aI1
aa(lp191
I0
aI0
aI0
aI0
aI1
aI0
aI0
aI0
aI0
aa(lp192
I1
aI0
aI0
aI0
aI0
aI0
aI0
aI0
aI0
aa(lp193
F0.12140025306502385
aF0.12140025306502385
aF0.12140025306502385
aF0.028797975479809123
aF0.12140025306502385
aF0.12140025306502385
aF0.12140025306502385
aF0.12140025306502385
aF0.12140025306502385
aa(lp194
F0.1623507322161424
aF0.1623507322161424
aF0.025895606703145453
aI0
aF0.1623507322161424
aF0.1623507322161424
aF0.1623507322161424
aF0.1623507322161424
aI0
aa(lp195
F0.24524187090179797
aF0.24524187090179797
aI0
aI0
aI0
aF0.24524187090179797
aF0.019032516392808098
aF0.24524187090179797
aI0
aa(lp196
F0.1396201920192497
aF0.022658655865252272
aF0.1396201920192497
aF0.1396201920192497
aI0
aF0.1396201920192497
aF0.1396201920192497
aF0.1396201920192497
aF0.1396201920192497
aa(lp197
F0.01586043032734008
aI0
aI0
aF0.19682791393453197
aI0
aF0.19682791393453197
aF0.19682791393453197
aF0.19682791393453197
aF0.19682791393453197
aa(lp198
I0
aI0
aI0
aI0
aI1
aI0
aI0
aI0
aI0
aa(lp199
I0
aI0
aI1
aI0
aI0
aI0
aI0
aI0
aI0
aa(lp200
I0
aI0
aI0
aI0
aI0
aI0
aI1
aI0
aI0
aa(lp201
I0
aI0
aI0
aI0
aI0
aI0
aI1
aI0
aI0
aa(lp202
I0
aI0
aI0
aI0
aI0
aI1
aI0
aI0
aI0
aa(lp203
I0
aI0
aI0
aI0
aI1
aI0
aI0
aI0
aI0
aa(lp204
I0
aI1
aI0
aI0
aI0
aI0
aI0
aI0
aI0
aa(lp205
I0
aI0
aI0
aI0
aI0
aI0
aI0
aI0
aI1
aa(lp206
I1
aI0
aI0
aI0
aI0
aI0
aI0
aI0
aI0
aa(lp207
I0
aI0
aI0
aI0
aI0
aI0
aI0
aI1
aI0
aa(lp208
I0
aI0
aI0
aI1
aI0
aI0
aI0
aI0
aI0
aa(lp209
I0
aI0
aI1
aI0
aI0
aI0
aI0
aI0
aI0
aa(lp210
I0
aI0
aI0
aI0
aI0
aI0
aI0
aI0
aI1
aa(lp211
I0
aI0
aI0
aI0
aI0
aI0
aI1
aI0
aI0
aa(lp212
I0
aI0
aI0
aI0
aI0
aI0
aI0
aI1
aI0
aa(lp213
F0.12140025306502385
aF0.028797975479809123
aF0.12140025306502385
aF0.12140025306502385
aF0.12140025306502385
aF0.12140025306502385
aF0.12140025306502385
aF0.12140025306502385
aF0.12140025306502385
aa(lp214
F0.1623507322161424
aI0
aF0.1623507322161424
aF0.1623507322161424
aF0.025895606703145453
aF0.1623507322161424
aF0.1623507322161424
aF0.1623507322161424
aI0
aa(lp215
F0.019032516392808098
aI0
aF0.24524187090179797
aF0.24524187090179797
aI0
aF0.24524187090179797
aI0
aF0.24524187090179797
aI0
aa(lp216
F0.13822889679788783
aF0.13822889679788783
aF0.13822889679788783
aF0.13822889679788783
aF0.13822889679788783
aF0.13822889679788783
aI0
aF0.13822889679788783
aF0.032397722414785265
aa(lp217
F0.19395769176926606
aI0
aF0.19395769176926606
aF0.19395769176926606
aF0.19395769176926606
aF0.19395769176926606
aI0
aF0.030211541153669697
aI0
aa(lp218
I0
aI0
aF0.3254031181696633
aF0.3254031181696633
aF0.3254031181696633
aF0.02379064549101012
aI0
aI0
aI0
aa(lp219
I0
aI0
aI0
aI0
aI0
aI0
aI1
aI0
aI0
aa(lp220
I0
aI1
aI0
aI0
aI0
aI0
aI0
aI0
aI0
aa(lp221
I1
aI0
aI0
aI0
aI0
aI0
aI0
aI0
aI0
aa(lp222
I0
aI0
aI0
aI1
aI0
aI0
aI0
aI0
aI0
aa(lp223
I0
aI0
aI0
aI0
aI1
aI0
aI0
aI0
aI0
aa(lp224
I0
aI0
aI1
aI0
aI0
aI0
aI0
aI0
aI0
aa(lp225
I0
aI0
aI0
aI0
aI0
aI0
aI0
aI1
aI0
aa(lp226
I0
aI1
aI0
aI0
aI0
aI0
aI0
aI0
aI0
aa(lp227
F0.12042111175049498
aF0.12042111175049498
aF0.12042111175049498
aF0.12042111175049498
aF0.12042111175049498
aF0.12042111175049498
aF0.036631105996040074
aF0.12042111175049498
aF0.12042111175049498
aa(lp228
F0.16049567192099326
aF0.16049567192099326
aF0.16049567192099326
aF0.16049567192099326
aI0
aF0.0370259684740403
aI0
aF0.16049567192099326
aF0.16049567192099326
aa(lp229
F0.03625384938440364
aF0.2409365376538991
aI0
aF0.2409365376538991
aI0
aI0
aI0
aF0.2409365376538991
aF0.2409365376538991
aa(lp230
I0
aF0.48413956967265986
aI0
aF0.48413956967265986
aI0
aI0
aI0
aI0
aF0.03172086065468016
aa(lp231
I1
aI0
aI0
aI0
aI0
aI0
aI0
aI0
aI0
aa(lp232
I0
aI0
aI0
aI0
aI0
aI1
aI0
aI0
aI0
aa(lp233
I0
aI0
aI0
aI0
aI1
aI0
aI0
aI0
aI0
aa(lp234
I0
aI0
aI0
aI0
aI0
aI0
aI0
aI0
aI1
aa(lp235
F0.12042111175049498
aF0.12042111175049498
aF0.12042111175049498
aF0.036631105996040074
aF0.12042111175049498
aF0.12042111175049498
aF0.12042111175049498
aF0.12042111175049498
aF0.12042111175049498
aa(lp236
I0
aF0.16049567192099326
aF0.16049567192099326
aI0
aF0.16049567192099326
aF0.16049567192099326
aF0.0370259684740403
aF0.16049567192099326
aF0.16049567192099326
aa(lp237
I0
aF0.2409365376538991
aF0.2409365376538991
aI0
aF0.2409365376538991
aI0
aI0
aF0.03625384938440364
aF0.2409365376538991
aa(lp238
I0
aF0.48413956967265986
aF0.03172086065468016
aI0
aI0
aI0
aI0
aI0
aF0.48413956967265986
aa(lp239
F0.1396201920192497
aF0.1396201920192497
aF0.022658655865252272
aF0.1396201920192497
aI0
aF0.1396201920192497
aF0.1396201920192497
aF0.1396201920192497
aF0.1396201920192497
aa(lp240
F0.19682791393453197
aF0.19682791393453197
aI0
aF0.19682791393453197
aI0
aI0
aF0.19682791393453197
aF0.19682791393453197
aF0.01586043032734008
aa(lp241
I0
aI0
aI0
aI0
aI1
aI0
aI0
aI0
aI0
aa(lp242
I0
aI0
aI0
aI0
aI0
aI1
aI0
aI0
aI0
aa(lp243
I0
aI0
aI0
aI1
aI0
aI0
aI0
aI0
aI0
aa(lp244
I0
aI1
aI0
aI0
aI0
aI0
aI0
aI0
aI0
aa(lp245
I0
aI0
aI0
aI0
aI1
aI0
aI0
aI0
aI0
aa(lp246
I0
aI0
aI0
aI1
aI0
aI0
aI0
aI0
aI0
aa(lp247
I0
aI0
aI0
aI0
aI0
aI0
aI0
aI1
aI0
aa(lp248
F0.12042111175049498
aF0.12042111175049498
aF0.12042111175049498
aF0.12042111175049498
aF0.12042111175049498
aF0.12042111175049498
aF0.12042111175049498
aF0.12042111175049498
aF0.036631105996040074
aa(lp249
F0.16049567192099326
aI0
aF0.16049567192099326
aF0.16049567192099326
aF0.16049567192099326
aF0.16049567192099326
aF0.0370259684740403
aF0.16049567192099326
aI0
aa(lp250
F0.2409365376538991
aI0
aF0.2409365376538991
aF0.2409365376538991
aI0
aF0.03625384938440364
aI0
aF0.2409365376538991
aI0
aa(lp251
F0.03172086065468016
aI0
aF0.48413956967265986
aI0
aI0
aI0
aI0
aF0.48413956967265986
aI0
aa(lp252
F0.13697000082206498
aF0.041209994245545084
aF0.13697000082206498
aF0.13697000082206498
aF0.13697000082206498
aF0.13697000082206498
aF0.13697000082206498
aF0.13697000082206498
aI0
aa(lp253
F0.19136060735605726
aI0
aF0.19136060735605726
aF0.19136060735605726
aF0.19136060735605726
aF0.04319696321971368
aF0.19136060735605726
aI0
aI0
aa(lp254
F0.3182275627564985
aI0
aF0.3182275627564985
aF0.045317311730504545
aI0
aI0
aF0.3182275627564985
aI0
aI0
aa(lp255
F0.04758129098202024
aI0
aI0
aI0
aI0
aI0
aF0.9524187090179798
aI0
aI0
aa(lp256
I0
aI0
aI0
aI0
aI0
aI0
aI0
aI0
aI1
aa(lp257
I0
aI0
aI0
aI0
aI0
aI0
aI0
aI1
aI0
aa(lp258
I0
aI0
aI0
aI0
aI1
aI0
aI0
aI0
aI0
aa(lp259
I0
aI0
aI1
aI0
aI0
aI0
aI0
aI0
aI0
aa(lp260
I0
aI0
aI0
aI0
aI0
aI0
aI1
aI0
aI0
aa(lp261
F0.13697000082206498
aF0.13697000082206498
aI0
aF0.13697000082206498
aF0.13697000082206498
aF0.13697000082206498
aF0.13697000082206498
aF0.041209994245545084
aF0.13697000082206498
aa(lp262
F0.19136060735605726
aF0.19136060735605726
aI0
aF0.19136060735605726
aI0
aF0.19136060735605726
aF0.04319696321971368
aI0
aF0.19136060735605726
aa(lp263
F0.3182275627564985
aF0.3182275627564985
aI0
aF0.3182275627564985
aI0
aF0.045317311730504545
aI0
aI0
aI0
aa(lp264
F0.9524187090179798
aF0.04758129098202024
aI0
aI0
aI0
aI0
aI0
aI0
aI0
aa(lp265
I0
aI0
aI1
aI0
aI0
aI0
aI0
aI0
aI0
aa(lp266
I0
aI0
aI0
aI0
aI1
aI0
aI0
aI0
aI0
aa(lp267
I0
aI0
aI0
aI0
aI0
aI0
aI0
aI0
aI1
aa(lp268
I0
aI0
aI0
aI1
aI0
aI0
aI0
aI0
aI0
aa(lp269
I1
aI0
aI0
aI0
aI0
aI0
aI0
aI0
aI0
aa(lp270
F0.13822889679788783
aF0.13822889679788783
aF0.13822889679788783
aF0.13822889679788783
aI0
aF0.13822889679788783
aF0.13822889679788783
aF0.032397722414785265
aF0.13822889679788783
aa(lp271
F0.19395769176926606
aF0.030211541153669697
aF0.19395769176926606
aI0
aI0
aF0.19395769176926606
aF0.19395769176926606
aI0
aF0.19395769176926606
aa(lp272
F0.3254031181696633
aI0
aI0
aI0
aI0
aF0.02379064549101012
aF0.3254031181696633
aI0
aF0.3254031181696633
aa(lp273
I0
aI0
aI0
aI0
aI1
aI0
aI0
aI0
aI0
aa(lp274
I0
aI0
aI0
aI1
aI0
aI0
aI0
aI0
aI0
aa(lp275
I0
aI0
aI1
aI0
aI0
aI0
aI0
aI0
aI0
aa(lp276
I0
aI0
aI0
aI0
aI0
aI0
aI1
aI0
aI0
aa(lp277
I0
aI0
aI1
aI0
aI0
aI0
aI0
aI0
aI0
aa(lp278
I0
aI0
aI0
aI1
aI0
aI0
aI0
aI0
aI0
aa(lp279
I0
aI1
aI0
aI0
aI0
aI0
aI0
aI0
aI0
aa(lp280
I0
aI0
aI0
aI0
aI0
aI0
aI0
aI0
aI1
aa(lp281
I0
aI0
aI0
aI0
aI1
aI0
aI0
aI0
aI0
aa(lp282
I1
aI0
aI0
aI0
aI0
aI0
aI0
aI0
aI0
aa(lp283
I0
aI0
aI0
aI0
aI0
aI1
aI0
aI0
aI0
aa(lp284
I0
aI0
aI0
aI0
aI0
aI0
aI1
aI0
aI0
aa(lp285
I0
aI0
aI0
aI0
aI0
aI0
aI0
aI1
aI0
aa(lp286
I0
aF0.13822889679788783
aF0.13822889679788783
aF0.032397722414785265
aF0.13822889679788783
aF0.13822889679788783
aF0.13822889679788783
aF0.13822889679788783
aF0.13822889679788783
aa(lp287
I0
aI0
aF0.19395769176926606
aI0
aF0.19395769176926606
aF0.19395769176926606
aF0.19395769176926606
aF0.030211541153669697
aF0.19395769176926606
aa(lp288
I0
aI0
aF0.3254031181696633
aI0
aI0
aF0.02379064549101012
aF0.3254031181696633
aI0
aF0.3254031181696633
aa(lp289
I1
aI0
aI0
aI0
aI0
aI0
aI0
aI0
aI0
aa(lp290
I0
aI1
aI0
aI0
aI0
aI0
aI0
aI0
aI0
aa(lp291
I0
aI0
aI0
aI0
aI1
aI0
aI0
aI0
aI0
aa(lp292
I0
aI0
aI0
aI0
aI0
aI0
aI0
aI0
aI1
aa(lp293
F0.13822889679788783
aF0.13822889679788783
aF0.13822889679788783
aF0.13822889679788783
aF0.13822889679788783
aI0
aF0.13822889679788783
aF0.13822889679788783
aF0.032397722414785265
aa(lp294
F0.19395769176926606
aF0.19395769176926606
aF0.19395769176926606
aF0.19395769176926606
aI0
aI0
aF0.030211541153669697
aF0.19395769176926606
aI0
aa(lp295
F0.3254031181696633
aF0.3254031181696633
aF0.3254031181696633
aF0.02379064549101012
aI0
aI0
aI0
aI0
aI0
aa(lp296
I0
aI0
aI0
aI0
aI0
aI1
aI0
aI0
aI0
aa(lp297
I0
aI0
aI0
aI0
aI1
aI0
aI0
aI0
aI0
aa(lp298
I0
aI0
aI0
aI0
aI0
aI0
aI0
aI1
aI0
aa(lp299
I0
aI1
aI0
aI0
aI0
aI0
aI0
aI0
aI0
aa(lp300
I0
aI0
aI1
aI0
aI0
aI0
aI0
aI0
aI0
aa(lp301
I0
aI0
aI0
aI0
aI1
aI0
aI0
aI0
aI0
aa(lp302
I0
aI0
aI0
aI1
aI0
aI0
aI0
aI0
aI0
aa(lp303
I0
aI0
aI0
aI0
aI0
aI1
aI0
aI0
aI0
aa(lp304
F0.12042111175049498
aF0.12042111175049498
aF0.12042111175049498
aF0.12042111175049498
aF0.12042111175049498
aF0.12042111175049498
aF0.12042111175049498
aF0.12042111175049498
aF0.036631105996040074
aa(lp305
F0.0370259684740403
aF0.16049567192099326
aI0
aF0.16049567192099326
aF0.16049567192099326
aF0.16049567192099326
aF0.16049567192099326
aF0.16049567192099326
aI0
aa(lp306
I0
aF0.2409365376538991
aI0
aF0.2409365376538991
aI0
aF0.2409365376538991
aF0.2409365376538991
aF0.03625384938440364
aI0
aa(lp307
I0
aF0.03172086065468016
aI0
aI0
aI0
aF0.48413956967265986
aF0.48413956967265986
aI0
aI0
aa(lp308
F0.13697000082206498
aF0.13697000082206498
aF0.13697000082206498
aF0.041209994245545084
aF0.13697000082206498
aF0.13697000082206498
aI0
aF0.13697000082206498
aF0.13697000082206498
aa(lp309
F0.19136060735605726
aF0.19136060735605726
aI0
aI0
aF0.19136060735605726
aF0.19136060735605726
aI0
aF0.19136060735605726
aF0.04319696321971368
aa(lp310
F0.045317311730504545
aI0
aI0
aI0
aF0.3182275627564985
aF0.3182275627564985
aI0
aF0.3182275627564985
aI0
aa(lp311
I0
aI0
aI0
aI0
aF0.9524187090179798
aF0.04758129098202024
aI0
aI0
aI0
aa(lp312
I0
aI0
aI0
aI0
aI0
aI0
aI1
aI0
aI0
aa(lp313
I0
aI0
aI1
aI0
aI0
aI0
aI0
aI0
aI0
aa(lp314
I0
aI1
aI0
aI0
aI0
aI0
aI0
aI0
aI0
aa(lp315
I0
aI0
aI0
aI0
aI0
aI0
aI0
aI1
aI0
aa(lp316
I0
aI0
aI0
aI0
aI1
aI0
aI0
aI0
aI0
aa(lp317
I1
aI0
aI0
aI0
aI0
aI0
aI0
aI0
aI0
aa(lp318
I0
aI0
aI0
aI0
aI0
aI0
aI0
aI1
aI0
aa(lp319
I0
aI0
aI0
aI0
aI0
aI0
aI0
aI0
aI1
aa(lp320
I0
aI0
aI0
aI0
aI0
aI0
aI1
aI0
aI0
aa(lp321
F0.12042111175049498
aF0.12042111175049498
aF0.12042111175049498
aF0.12042111175049498
aF0.12042111175049498
aF0.036631105996040074
aF0.12042111175049498
aF0.12042111175049498
aF0.12042111175049498
aa(lp322
I0
aF0.16049567192099326
aF0.16049567192099326
aF0.16049567192099326
aF0.0370259684740403
aI0
aF0.16049567192099326
aF0.16049567192099326
aF0.16049567192099326
aa(lp323
I0
aF0.03625384938440364
aF0.2409365376538991
aF0.2409365376538991
aI0
aI0
aF0.2409365376538991
aI0
aF0.2409365376538991
aa(lp324
I0
aI0
aF0.03172086065468016
aF0.48413956967265986
aI0
aI0
aF0.48413956967265986
aI0
aI0
aa(lp325
F0.022658655865252272
aF0.1396201920192497
aF0.1396201920192497
aF0.1396201920192497
aI0
aF0.1396201920192497
aF0.1396201920192497
aF0.1396201920192497
aF0.1396201920192497
aa(lp326
I0
aF0.19682791393453197
aF0.19682791393453197
aF0.01586043032734008
aI0
aF0.19682791393453197
aI0
aF0.19682791393453197
aF0.19682791393453197
aa(lp327
I0
aI0
aI0
aI0
aI1
aI0
aI0
aI0
aI0
aa(lp328
I0
aI0
aI0
aI0
aI0
aI0
aI1
aI0
aI0
aa(lp329
I0
aI0
aI1
aI0
aI0
aI0
aI0
aI0
aI0
aa(lp330
F0.13822889679788783
aF0.13822889679788783
aF0.13822889679788783
aF0.13822889679788783
aI0
aF0.13822889679788783
aF0.13822889679788783
aF0.13822889679788783
aF0.032397722414785265
aa(lp331
F0.19395769176926606
aI0
aF0.19395769176926606
aF0.030211541153669697
aI0
aF0.19395769176926606
aF0.19395769176926606
aF0.19395769176926606
aI0
aa(lp332
F0.3254031181696633
aI0
aF0.02379064549101012
aI0
aI0
aI0
aF0.3254031181696633
aF0.3254031181696633
aI0
aa(lp333
I0
aI0
aI0
aI0
aI1
aI0
aI0
aI0
aI0
aa(lp334
I0
aI1
aI0
aI0
aI0
aI0
aI0
aI0
aI0
aa(lp335
I0
aI0
aI0
aI0
aI0
aI1
aI0
aI0
aI0
aa(lp336
I0
aI0
aI0
aI0
aI0
aI0
aI0
aI1
aI0
aa(lp337
I0
aI0
aI0
aI0
aI0
aI0
aI1
aI0
aI0
aa(lp338
I0
aI0
aI0
aI0
aI1
aI0
aI0
aI0
aI0
aa(lp339
I0
aI1
aI0
aI0
aI0
aI0
aI0
aI0
aI0
aa(lp340
I0
aI0
aI0
aI0
aI0
aI0
aI0
aI0
aI1
aa(lp341
I0
aI0
aI0
aI0
aI0
aI0
aI0
aI1
aI0
aa(lp342
I0
aI0
aI0
aI0
aI0
aI1
aI0
aI0
aI0
aa(lp343
I0
aI0
aI1
aI0
aI0
aI0
aI0
aI0
aI0
aa(lp344
I0
aI0
aI0
aI1
aI0
aI0
aI0
aI0
aI0
aa(lp345
I1
aI0
aI0
aI0
aI0
aI0
aI0
aI0
aI0
aa(lp346
F0.13822889679788783
aI0
aF0.032397722414785265
aF0.13822889679788783
aF0.13822889679788783
aF0.13822889679788783
aF0.13822889679788783
aF0.13822889679788783
aF0.13822889679788783
aa(lp347
F0.19395769176926606
aI0
aI0
aI0
aF0.19395769176926606
aF0.030211541153669697
aF0.19395769176926606
aF0.19395769176926606
aF0.19395769176926606
aa(lp348
F0.3254031181696633
aI0
aI0
aI0
aF0.3254031181696633
aI0
aF0.02379064549101012
aI0
aF0.3254031181696633
aa(lp349
I0
aI1
aI0
aI0
aI0
aI0
aI0
aI0
aI0
aa(lp350
I0
aI0
aI0
aI1
aI0
aI0
aI0
aI0
aI0
aa(lp351
I0
aI0
aI0
aI0
aI0
aI0
aI0
aI1
aI0
aa(lp352
I0
aI0
aI0
aI0
aI1
aI0
aI0
aI0
aI0
aa(lp353
F0.13822889679788783
aF0.13822889679788783
aI0
aF0.13822889679788783
aF0.13822889679788783
aF0.13822889679788783
aF0.13822889679788783
aF0.13822889679788783
aF0.032397722414785265
aa(lp354
I0
aF0.030211541153669697
aI0
aF0.19395769176926606
aF0.19395769176926606
aF0.19395769176926606
aF0.19395769176926606
aF0.19395769176926606
aI0
aa(lp355
I0
aI0
aI0
aF0.3254031181696633
aI0
aF0.02379064549101012
aF0.3254031181696633
aF0.3254031181696633
aI0
aa(lp356
I0
aI0
aI1
aI0
aI0
aI0
aI0
aI0
aI0
aa(lp357
I1
aI0
aI0
aI0
aI0
aI0
aI0
aI0
aI0
aa(lp358
I0
aI0
aI0
aI0
aI1
aI0
aI0
aI0
aI0
aa(lp359
I0
aI0
aI0
aI0
aI0
aI0
aI1
aI0
aI0
aa(lp360
I0
aI0
aI0
aI0
aI1
aI0
aI0
aI0
aI0
aa(lp361
I1
aI0
aI0
aI0
aI0
aI0
aI0
aI0
aI0
aa(lp362
I0
aI0
aI0
aI0
aI0
aI0
aI0
aI1
aI0
aa(lp363
I0
aI0
aI0
aI0
aI0
aI0
aI0
aI0
aI1
aa(lp364
F0.12042111175049498
aF0.12042111175049498
aF0.12042111175049498
aF0.036631105996040074
aF0.12042111175049498
aF0.12042111175049498
aF0.12042111175049498
aF0.12042111175049498
aF0.12042111175049498
aa(lp365
F0.16049567192099326
aF0.16049567192099326
aF0.16049567192099326
aI0
aI0
aF0.16049567192099326
aF0.0370259684740403
aF0.16049567192099326
aF0.16049567192099326
aa(lp366
I0
aF0.2409365376538991
aF0.2409365376538991
aI0
aI0
aF0.03625384938440364
aI0
aF0.2409365376538991
aF0.2409365376538991
aa(lp367
I0
aF0.48413956967265986
aF0.03172086065468016
aI0
aI0
aI0
aI0
aI0
aF0.48413956967265986
aa(lp368
F0.1396201920192497
aF0.1396201920192497
aI0
aF0.022658655865252272
aF0.1396201920192497
aF0.1396201920192497
aF0.1396201920192497
aF0.1396201920192497
aF0.1396201920192497
aa(lp369
F0.19682791393453197
aI0
aI0
aI0
aF0.19682791393453197
aF0.01586043032734008
aF0.19682791393453197
aF0.19682791393453197
aF0.19682791393453197
aa(lp370
I0
aI0
aI1
aI0
aI0
aI0
aI0
aI0
aI0
aa(lp371
I0
aI1
aI0
aI0
aI0
aI0
aI0
aI0
aI0
aa(lp372
I1
aI0
aI0
aI0
aI0
aI0
aI0
aI0
aI0
aa(lp373
F0.13697000082206498
aI0
aF0.13697000082206498
aF0.13697000082206498
aF0.13697000082206498
aF0.13697000082206498
aF0.041209994245545084
aF0.13697000082206498
aF0.13697000082206498
aa(lp374
F0.19136060735605726
aI0
aI0
aF0.04319696321971368
aF0.19136060735605726
aF0.19136060735605726
aI0
aF0.19136060735605726
aF0.19136060735605726
aa(lp375
F0.3182275627564985
aI0
aI0
aI0
aI0
aF0.045317311730504545
aI0
aF0.3182275627564985
aF0.3182275627564985
aa(lp376
F0.9524187090179798
aI0
aI0
aI0
aI0
aI0
aI0
aF0.04758129098202024
aI0
aa(lp377
I0
aI1
aI0
aI0
aI0
aI0
aI0
aI0
aI0
aa(lp378
I0
aI0
aI1
aI0
aI0
aI0
aI0
aI0
aI0
aa(lp379
I0
aI0
aI0
aI0
aI1
aI0
aI0
aI0
aI0
aa(lp380
I0
aI0
aI0
aI0
aI0
aI0
aI0
aI0
aI1
aa(lp381
I1
aI0
aI0
aI0
aI0
aI0
aI0
aI0
aI0
aa(lp382
F0.1396201920192497
aF0.1396201920192497
aF0.1396201920192497
aF0.1396201920192497
aF0.1396201920192497
aF0.1396201920192497
aF0.022658655865252272
aI0
aF0.1396201920192497
aa(lp383
F0.19682791393453197
aI0
aF0.19682791393453197
aF0.19682791393453197
aF0.19682791393453197
aF0.01586043032734008
aI0
aI0
aF0.19682791393453197
aa(lp384
I0
aI0
aI0
aI0
aI0
aI0
aI0
aI1
aI0
aa(lp385
I0
aI1
aI0
aI0
aI0
aI0
aI0
aI0
aI0
aa(lp386
I0
aI0
aI0
aI0
aI1
aI0
aI0
aI0
aI0
aa(lp387
I0
aI0
aI0
aI0
aI0
aI0
aI0
aI1
aI0
aa(lp388
I1
aI0
aI0
aI0
aI0
aI0
aI0
aI0
aI0
aa(lp389
I0
aI0
aI0
aI1
aI0
aI0
aI0
aI0
aI0
aa(lp390
I0
aI0
aI0
aI0
aI0
aI0
aI1
aI0
aI0
aa(lp391
F0.12042111175049498
aF0.036631105996040074
aF0.12042111175049498
aF0.12042111175049498
aF0.12042111175049498
aF0.12042111175049498
aF0.12042111175049498
aF0.12042111175049498
aF0.12042111175049498
aa(lp392
F0.16049567192099326
aI0
aF0.0370259684740403
aF0.16049567192099326
aF0.16049567192099326
aF0.16049567192099326
aF0.16049567192099326
aI0
aF0.16049567192099326
aa(lp393
I0
aI0
aI0
aF0.2409365376538991
aF0.03625384938440364
aF0.2409365376538991
aF0.2409365376538991
aI0
aF0.2409365376538991
aa(lp394
I0
aI0
aI0
aI0
aI0
aF0.03172086065468016
aF0.48413956967265986
aI0
aF0.48413956967265986
aa(lp395
I0
aI0
aI0
aI0
aI0
aI0
aI1
aI0
aI0
aa(lp396
I1
aI0
aI0
aI0
aI0
aI0
aI0
aI0
aI0
aa(lp397
I0
aI0
aI0
aI0
aI0
aI0
aI0
aI1
aI0
aa(lp398
I0
aI0
aI0
aI0
aI0
aI0
aI0
aI0
aI1
aa(lp399
F0.12042111175049498
aF0.036631105996040074
aF0.12042111175049498
aF0.12042111175049498
aF0.12042111175049498
aF0.12042111175049498
aF0.12042111175049498
aF0.12042111175049498
aF0.12042111175049498
aa(lp400
F0.16049567192099326
aI0
aF0.16049567192099326
aF0.16049567192099326
aF0.0370259684740403
aF0.16049567192099326
aI0
aF0.16049567192099326
aF0.16049567192099326
aa(lp401
I0
aI0
aF0.03625384938440364
aF0.2409365376538991
aI0
aF0.2409365376538991
aI0
aF0.2409365376538991
aF0.2409365376538991
aa(lp402
I0
aI0
aI0
aF0.48413956967265986
aI0
aF0.03172086065468016
aI0
aI0
aF0.48413956967265986
aa(lp403
I0
aI0
aI0
aI0
aI0
aI0
aI0
aI0
aI1
aa(lp404
I0
aI0
aI1
aI0
aI0
aI0
aI0
aI0
aI0
aa(lp405
I0
aI0
aI0
aI0
aI0
aI0
aI1
aI0
aI0
aa(lp406
I0
aI0
aI0
aI0
aI0
aI1
aI0
aI0
aI0
aa(lp407
F0.12042111175049498
aF0.12042111175049498
aF0.12042111175049498
aF0.12042111175049498
aF0.036631105996040074
aF0.12042111175049498
aF0.12042111175049498
aF0.12042111175049498
aF0.12042111175049498
aa(lp408
F0.16049567192099326
aF0.16049567192099326
aF0.16049567192099326
aF0.0370259684740403
aI0
aF0.16049567192099326
aF0.16049567192099326
aF0.16049567192099326
aI0
aa(lp409
F0.2409365376538991
aF0.03625384938440364
aI0
aI0
aI0
aF0.2409365376538991
aF0.2409365376538991
aF0.2409365376538991
aI0
aa(lp410
F0.03172086065468016
aI0
aI0
aI0
aI0
aF0.48413956967265986
aI0
aF0.48413956967265986
aI0
aa(lp411
F0.13822889679788783
aI0
aF0.13822889679788783
aF0.13822889679788783
aF0.13822889679788783
aF0.13822889679788783
aF0.032397722414785265
aF0.13822889679788783
aF0.13822889679788783
aa(lp412
F0.19395769176926606
aI0
aI0
aF0.19395769176926606
aF0.19395769176926606
aF0.19395769176926606
aI0
aF0.19395769176926606
aF0.030211541153669697
aa(lp413
F0.3254031181696633
aI0
aI0
aI0
aF0.02379064549101012
aF0.3254031181696633
aI0
aF0.3254031181696633
aI0
aa(lp414
I0
aI1
aI0
aI0
aI0
aI0
aI0
aI0
aI0
aa(lp415
I0
aI0
aI1
aI0
aI0
aI0
aI0
aI0
aI0
aa(lp416
I0
aI0
aI0
aI1
aI0
aI0
aI0
aI0
aI0
aa(lp417
I1
aI0
aI0
aI0
aI0
aI0
aI0
aI0
aI0
aa(lp418
I0
aF0.13822889679788783
aF0.13822889679788783
aF0.032397722414785265
aF0.13822889679788783
aF0.13822889679788783
aF0.13822889679788783
aF0.13822889679788783
aF0.13822889679788783
aa(lp419
I0
aF0.19395769176926606
aF0.19395769176926606
aI0
aF0.030211541153669697
aF0.19395769176926606
aI0
aF0.19395769176926606
aF0.19395769176926606
aa(lp420
I0
aF0.02379064549101012
aF0.3254031181696633
aI0
aI0
aF0.3254031181696633
aI0
aF0.3254031181696633
aI0
aa(lp421
I1
aI0
aI0
aI0
aI0
aI0
aI0
aI0
aI0
aa(lp422
I0
aI0
aI0
aI0
aI0
aI0
aI1
aI0
aI0
aa(lp423
I0
aI0
aI0
aI0
aI0
aI0
aI0
aI0
aI1
aa(lp424
I0
aI0
aI0
aI0
aI0
aI0
aI0
aI1
aI0
aa(lp425
F0.1396201920192497
aF0.1396201920192497
aI0
aF0.022658655865252272
aF0.1396201920192497
aF0.1396201920192497
aF0.1396201920192497
aF0.1396201920192497
aF0.1396201920192497
aa(lp426
F0.19682791393453197
aI0
aI0
aI0
aF0.19682791393453197
aF0.19682791393453197
aF0.19682791393453197
aF0.19682791393453197
aF0.01586043032734008
aa(lp427
I0
aI0
aI1
aI0
aI0
aI0
aI0
aI0
aI0
aa(lp428
I0
aI1
aI0
aI0
aI0
aI0
aI0
aI0
aI0
aa(lp429
I1
aI0
aI0
aI0
aI0
aI0
aI0
aI0
aI0
aa(lp430
I0
aI0
aI0
aI1
aI0
aI0
aI0
aI0
aI0
aa(lp431
I0
aI0
aI0
aI0
aI1
aI0
aI0
aI0
aI0
aa(lp432
I0
aI0
aI0
aI0
aI0
aI0
aI1
aI0
aI0
aa(lp433
I0
aI0
aI1
aI0
aI0
aI0
aI0
aI0
aI0
aa(lp434
F0.036631105996040074
aF0.12042111175049498
aF0.12042111175049498
aF0.12042111175049498
aF0.12042111175049498
aF0.12042111175049498
aF0.12042111175049498
aF0.12042111175049498
aF0.12042111175049498
aa(lp435
I0
aF0.16049567192099326
aF0.16049567192099326
aI0
aF0.16049567192099326
aF0.16049567192099326
aF0.16049567192099326
aF0.0370259684740403
aF0.16049567192099326
aa(lp436
I0
aF0.2409365376538991
aF0.2409365376538991
aI0
aI0
aF0.03625384938440364
aF0.2409365376538991
aI0
aF0.2409365376538991
aa(lp437
I0
aF0.48413956967265986
aF0.48413956967265986
aI0
aI0
aI0
aI0
aI0
aF0.03172086065468016
aa(lp438
I0
aI0
aI0
aI0
aI0
aI0
aI0
aI0
aI1
aa(lp439
I0
aI0
aI0
aI0
aI1
aI0
aI0
aI0
aI0
aa(lp440
I1
aI0
aI0
aI0
aI0
aI0
aI0
aI0
aI0
aa(lp441
F0.12140025306502385
aF0.028797975479809123
aF0.12140025306502385
aF0.12140025306502385
aF0.12140025306502385
aF0.12140025306502385
aF0.12140025306502385
aF0.12140025306502385
aF0.12140025306502385
aa(lp442
F0.1623507322161424
aI0
aF0.025895606703145453
aF0.1623507322161424
aF0.1623507322161424
aF0.1623507322161424
aF0.1623507322161424
aF0.1623507322161424
aI0
aa(lp443
F0.24524187090179797
aI0
aI0
aF0.24524187090179797
aI0
aF0.24524187090179797
aF0.019032516392808098
aF0.24524187090179797
aI0
aa(lp444
I0
aI0
aI0
aI0
aI0
aI1
aI0
aI0
aI0
aa(lp445
I0
aI0
aI1
aI0
aI0
aI0
aI0
aI0
aI0
aa(lp446
I0
aI0
aI0
aI0
aI0
aI0
aI0
aI0
aI1
aa(lp447
F0.12140025306502385
aF0.12140025306502385
aF0.12140025306502385
aF0.12140025306502385
aF0.028797975479809123
aF0.12140025306502385
aF0.12140025306502385
aF0.12140025306502385
aF0.12140025306502385
aa(lp448
F0.1623507322161424
aF0.1623507322161424
aF0.1623507322161424
aF0.1623507322161424
aI0
aI0
aF0.025895606703145453
aF0.1623507322161424
aF0.1623507322161424
aa(lp449
F0.24524187090179797
aF0.24524187090179797
aI0
aF0.019032516392808098
aI0
aI0
aI0
aF0.24524187090179797
aF0.24524187090179797
aa(lp450
I1
aI0
aI0
aI0
aI0
aI0
aI0
aI0
aI0
aa(lp451
I0
aI0
aI0
aI1
aI0
aI0
aI0
aI0
aI0
aa(lp452
I0
aI0
aI1
aI0
aI0
aI0
aI0
aI0
aI0
aa(lp453
I0
aI0
aI0
aI0
aI0
aI0
aI1
aI0
aI0
aa(lp454
F0.12042111175049498
aF0.12042111175049498
aF0.12042111175049498
aF0.12042111175049498
aF0.12042111175049498
aF0.12042111175049498
aF0.12042111175049498
aF0.12042111175049498
aF0.036631105996040074
aa(lp455
I0
aF0.16049567192099326
aF0.16049567192099326
aF0.16049567192099326
aF0.16049567192099326
aF0.0370259684740403
aF0.16049567192099326
aF0.16049567192099326
aI0
aa(lp456
I0
aF0.2409365376538991
aF0.2409365376538991
aI0
aF0.03625384938440364
aI0
aF0.2409365376538991
aF0.2409365376538991
aI0
aa(lp457
I0
aF0.03172086065468016
aI0
aI0
aI0
aI0
aF0.48413956967265986
aF0.48413956967265986
aI0
aa(lp458
I0
aI0
aI0
aI0
aI0
aI0
aI1
aI0
aI0
aa(lp459
I0
aI0
aI0
aI0
aI1
aI0
aI0
aI0
aI0
aa(lp460
I0
aI0
aI1
aI0
aI0
aI0
aI0
aI0
aI0
aa(lp461
F0.12140025306502385
aF0.12140025306502385
aF0.12140025306502385
aF0.12140025306502385
aF0.12140025306502385
aF0.12140025306502385
aF0.12140025306502385
aF0.028797975479809123
aF0.12140025306502385
aa(lp462
F0.1623507322161424
aF0.1623507322161424
aF0.1623507322161424
aF0.1623507322161424
aF0.1623507322161424
aF0.1623507322161424
aI0
aI0
aF0.025895606703145453
aa(lp463
F0.24524187090179797
aF0.019032516392808098
aF0.24524187090179797
aF0.24524187090179797
aI0
aF0.24524187090179797
aI0
aI0
aI0
aa(lp464
I0
aI0
aI0
aI0
aI0
aI0
aI0
aI0
aI1
aa(lp465
I0
aI0
aI0
aI0
aI1
aI0
aI0
aI0
aI0
aa(lp466
I0
aI0
aI0
aI0
aI0
aI1
aI0
aI0
aI0
aa(lp467
I1
aI0
aI0
aI0
aI0
aI0
aI0
aI0
aI0
aa(lp468
F0.12042111175049498
aF0.12042111175049498
aF0.12042111175049498
aF0.12042111175049498
aF0.12042111175049498
aF0.12042111175049498
aF0.12042111175049498
aF0.036631105996040074
aF0.12042111175049498
aa(lp469
F0.16049567192099326
aF0.16049567192099326
aF0.16049567192099326
aF0.0370259684740403
aF0.16049567192099326
aF0.16049567192099326
aF0.16049567192099326
aI0
aI0
aa(lp470
F0.2409365376538991
aF0.2409365376538991
aF0.2409365376538991
aI0
aI0
aF0.2409365376538991
aF0.03625384938440364
aI0
aI0
aa(lp471
F0.48413956967265986
aF0.03172086065468016
aF0.48413956967265986
aI0
aI0
aI0
aI0
aI0
aI0
aa(lp472
I0
aI1
aI0
aI0
aI0
aI0
aI0
aI0
aI0
aa(lp473
I0
aI0
aI0
aI0
aI0
aI0
aI0
aI1
aI0
aa(lp474
I0
aI0
aI0
aI0
aI1
aI0
aI0
aI0
aI0
aa(lp475
F0.12140025306502385
aF0.12140025306502385
aF0.028797975479809123
aF0.12140025306502385
aF0.12140025306502385
aF0.12140025306502385
aF0.12140025306502385
aF0.12140025306502385
aF0.12140025306502385
aa(lp476
F0.1623507322161424
aI0
aI0
aF0.1623507322161424
aF0.1623507322161424
aF0.1623507322161424
aF0.1623507322161424
aF0.1623507322161424
aF0.025895606703145453
aa(lp477
F0.24524187090179797
aI0
aI0
aF0.019032516392808098
aF0.24524187090179797
aF0.24524187090179797
aF0.24524187090179797
aI0
aI0
aa(lp478
I0
aI0
aI0
aI0
aI0
aI0
aI1
aI0
aI0
aa(lp479
I0
aI0
aI0
aI0
aI1
aI0
aI0
aI0
aI0
aa(lp480
I0
aI0
aI1
aI0
aI0
aI0
aI0
aI0
aI0
aa(lp481
F0.12140025306502385
aF0.12140025306502385
aF0.12140025306502385
aF0.12140025306502385
aF0.12140025306502385
aF0.12140025306502385
aF0.12140025306502385
aF0.028797975479809123
aF0.12140025306502385
aa(lp482
F0.1623507322161424
aF0.1623507322161424
aF0.1623507322161424
aF0.025895606703145453
aF0.1623507322161424
aF0.1623507322161424
aI0
aI0
aF0.1623507322161424
aa(lp483
F0.019032516392808098
aF0.24524187090179797
aF0.24524187090179797
aI0
aI0
aF0.24524187090179797
aI0
aI0
aF0.24524187090179797
aa(lp484
I0
aI0
aI0
aI1
aI0
aI0
aI0
aI0
aI0
aa(lp485
I0
aI0
aI0
aI0
aI1
aI0
aI0
aI0
aI0
aa(lp486
I0
aI0
aI0
aI0
aI0
aI1
aI0
aI0
aI0
aa(lp487
F0.12140025306502385
aF0.12140025306502385
aF0.12140025306502385
aF0.12140025306502385
aF0.12140025306502385
aF0.12140025306502385
aF0.12140025306502385
aF0.12140025306502385
aF0.028797975479809123
aa(lp488
F0.1623507322161424
aF0.1623507322161424
aF0.025895606703145453
aI0
aF0.1623507322161424
aF0.1623507322161424
aF0.1623507322161424
aF0.1623507322161424
aI0
aa(lp489
F0.24524187090179797
aF0.019032516392808098
aI0
aI0
aI0
aF0.24524187090179797
aF0.24524187090179797
aF0.24524187090179797
aI0
aa(lp490
I0
aI0
aI0
aI0
aI0
aI0
aI0
aI0
aI1
aa(lp491
I0
aI0
aI0
aI0
aI0
aI1
aI0
aI0
aI0
aa(lp492
I0
aI0
aI1
aI0
aI0
aI0
aI0
aI0
aI0
aa(lp493
F0.12140025306502385
aF0.12140025306502385
aF0.12140025306502385
aF0.12140025306502385
aF0.028797975479809123
aF0.12140025306502385
aF0.12140025306502385
aF0.12140025306502385
aF0.12140025306502385
aa(lp494
F0.025895606703145453
aF0.1623507322161424
aF0.1623507322161424
aF0.1623507322161424
aI0
aF0.1623507322161424
aF0.1623507322161424
aF0.1623507322161424
aI0
aa(lp495
I0
aF0.24524187090179797
aF0.24524187090179797
aF0.24524187090179797
aI0
aI0
aF0.24524187090179797
aF0.019032516392808098
aI0
aa(lp496
F0.13822889679788783
aF0.13822889679788783
aF0.13822889679788783
aF0.13822889679788783
aF0.13822889679788783
aF0.13822889679788783
aF0.13822889679788783
aF0.032397722414785265
aI0
aa(lp497
F0.19395769176926606
aF0.19395769176926606
aI0
aF0.030211541153669697
aF0.19395769176926606
aF0.19395769176926606
aF0.19395769176926606
aI0
aI0
aa(lp498
F0.3254031181696633
aF0.3254031181696633
aI0
aI0
aI0
aF0.3254031181696633
aF0.02379064549101012
aI0
aI0
aa(lp499
I0
aI0
aI0
aI0
aI0
aI0
aI0
aI0
aI1
aa(lp500
I0
aI0
aI1
aI0
aI0
aI0
aI0
aI0
aI0
aa(lp501
I0
aI0
aI0
aI0
aI1
aI0
aI0
aI0
aI0
aa(lp502
I1
aI0
aI0
aI0
aI0
aI0
aI0
aI0
aI0
aa(lp503
F0.1396201920192497
aF0.1396201920192497
aF0.1396201920192497
aF0.1396201920192497
aF0.1396201920192497
aF0.1396201920192497
aF0.1396201920192497
aF0.022658655865252272
aI0
aa(lp504
F0.19682791393453197
aF0.01586043032734008
aF0.19682791393453197
aF0.19682791393453197
aF0.19682791393453197
aI0
aF0.19682791393453197
aI0
aI0
aa(lp505
I0
aI0
aI0
aI0
aI0
aI0
aI0
aI0
aI1
aa(lp506
I0
aI0
aI0
aI0
aI0
aI1
aI0
aI0
aI0
aa(lp507
I0
aI0
aI1
aI0
aI0
aI0
aI0
aI0
aI0
aa(lp508
I0
aI0
aI0
aI1
aI0
aI0
aI0
aI0
aI0
aa(lp509
I0
aI0
aI0
aI0
aI0
aI0
aI1
aI0
aI0
aa(lp510
I0
aI0
aI0
aI0
aI1
aI0
aI0
aI0
aI0
aa(lp511
I0
aI0
aI1
aI0
aI0
aI0
aI0
aI0
aI0
aa(lp512
F0.12042111175049498
aF0.12042111175049498
aF0.12042111175049498
aF0.12042111175049498
aF0.12042111175049498
aF0.036631105996040074
aF0.12042111175049498
aF0.12042111175049498
aF0.12042111175049498
aa(lp513
F0.0370259684740403
aF0.16049567192099326
aF0.16049567192099326
aI0
aF0.16049567192099326
aI0
aF0.16049567192099326
aF0.16049567192099326
aF0.16049567192099326
aa(lp514
I0
aF0.2409365376538991
aF0.2409365376538991
aI0
aF0.2409365376538991
aI0
aI0
aF0.2409365376538991
aF0.03625384938440364
aa(lp515
I0
aF0.03172086065468016
aF0.48413956967265986
aI0
aI0
aI0
aI0
aF0.48413956967265986
aI0
aa(lp516
I0
aI0
aI0
aI0
aI0
aI1
aI0
aI0
aI0
aa(lp517
I0
aI0
aI0
aI0
aI0
aI0
aI0
aI0
aI1
aa(lp518
I1
aI0
aI0
aI0
aI0
aI0
aI0
aI0
aI0
aa(lp519
I0
aI0
aI0
aI0
aI1
aI0
aI0
aI0
aI0
aa(lp520
F0.12042111175049498
aF0.12042111175049498
aF0.12042111175049498
aF0.036631105996040074
aF0.12042111175049498
aF0.12042111175049498
aF0.12042111175049498
aF0.12042111175049498
aF0.12042111175049498
aa(lp521
F0.16049567192099326
aF0.16049567192099326
aF0.0370259684740403
aI0
aF0.16049567192099326
aI0
aF0.16049567192099326
aF0.16049567192099326
aF0.16049567192099326
aa(lp522
F0.2409365376538991
aF0.2409365376538991
aI0
aI0
aF0.2409365376538991
aI0
aF0.03625384938440364
aF0.2409365376538991
aI0
aa(lp523
I0
aF0.48413956967265986
aI0
aI0
aF0.48413956967265986
aI0
aI0
aF0.03172086065468016
aI0
aa(lp524
I0
aI0
aI0
aI0
aI1
aI0
aI0
aI0
aI0
aa(lp525
I0
aI0
aI0
aI0
aI0
aI0
aI0
aI1
aI0
aa(lp526
I0
aI0
aI0
aI1
aI0
aI0
aI0
aI0
aI0
aa(lp527
I0
aI1
aI0
aI0
aI0
aI0
aI0
aI0
aI0
aa(lp528
F0.036631105996040074
aF0.12042111175049498
aF0.12042111175049498
aF0.12042111175049498
aF0.12042111175049498
aF0.12042111175049498
aF0.12042111175049498
aF0.12042111175049498
aF0.12042111175049498
aa(lp529
I0
aF0.16049567192099326
aF0.16049567192099326
aF0.16049567192099326
aI0
aF0.16049567192099326
aF0.16049567192099326
aF0.16049567192099326
aF0.0370259684740403
aa(lp530
I0
aF0.2409365376538991
aF0.2409365376538991
aF0.2409365376538991
aI0
aF0.2409365376538991
aF0.03625384938440364
aI0
aI0
aa(lp531
I0
aF0.48413956967265986
aF0.48413956967265986
aI0
aI0
aF0.03172086065468016
aI0
aI0
aI0
aa(lp532
I0
aI0
aI0
aI1
aI0
aI0
aI0
aI0
aI0
aa(lp533
I0
aI0
aI0
aI0
aI0
aI0
aI0
aI0
aI1
aa(lp534
I0
aI0
aI1
aI0
aI0
aI0
aI0
aI0
aI0
aa(lp535
I0
aI0
aI0
aI0
aI1
aI0
aI0
aI0
aI0
aa(lp536
I0
aI0
aI0
aI0
aI0
aI0
aI1
aI0
aI0
aa(lp537
I0
aI1
aI0
aI0
aI0
aI0
aI0
aI0
aI0
aa(lp538
I1
aI0
aI0
aI0
aI0
aI0
aI0
aI0
aI0
aa(lp539
I0
aI0
aI0
aI0
aI0
aI1
aI0
aI0
aI0
aa(lp540
I0
aI0
aI0
aI0
aI0
aI0
aI0
aI1
aI0
aa(lp541
I1
aI0
aI0
aI0
aI0
aI0
aI0
aI0
aI0
aa(lp542
I0
aI0
aI0
aI0
aI0
aI0
aI0
aI1
aI0
aa(lp543
I0
aI0
aI1
aI0
aI0
aI0
aI0
aI0
aI0
aa(lp544
I0
aI1
aI0
aI0
aI0
aI0
aI0
aI0
aI0
aa(lp545
F0.12042111175049498
aF0.12042111175049498
aF0.12042111175049498
aF0.12042111175049498
aF0.036631105996040074
aF0.12042111175049498
aF0.12042111175049498
aF0.12042111175049498
aF0.12042111175049498
aa(lp546
I0
aF0.16049567192099326
aF0.16049567192099326
aF0.16049567192099326
aI0
aF0.16049567192099326
aF0.0370259684740403
aF0.16049567192099326
aF0.16049567192099326
aa(lp547
I0
aF0.2409365376538991
aF0.2409365376538991
aF0.03625384938440364
aI0
aF0.2409365376538991
aI0
aI0
aF0.2409365376538991
aa(lp548
I0
aF0.48413956967265986
aI0
aI0
aI0
aF0.48413956967265986
aI0
aI0
aF0.03172086065468016
aa(lp549
F0.13697000082206498
aF0.13697000082206498
aI0
aF0.13697000082206498
aF0.041209994245545084
aF0.13697000082206498
aF0.13697000082206498
aF0.13697000082206498
aF0.13697000082206498
aa(lp550
F0.19136060735605726
aF0.19136060735605726
aI0
aI0
aI0
aF0.19136060735605726
aF0.04319696321971368
aF0.19136060735605726
aF0.19136060735605726
aa(lp551
F0.3182275627564985
aI0
aI0
aI0
aI0
aF0.3182275627564985
aI0
aF0.045317311730504545
aF0.3182275627564985
aa(lp552
F0.9524187090179798
aI0
aI0
aI0
aI0
aF0.04758129098202024
aI0
aI0
aI0
aa(lp553
I0
aI0
aI1
aI0
aI0
aI0
aI0
aI0
aI0
aa(lp554
I0
aI0
aI0
aI1
aI0
aI0
aI0
aI0
aI0
aa(lp555
I0
aI1
aI0
aI0
aI0
aI0
aI0
aI0
aI0
aa(lp556
I0
aI0
aI0
aI0
aI0
aI0
aI0
aI0
aI1
aa(lp557
I1
aI0
aI0
aI0
aI0
aI0
aI0
aI0
aI0
aa(lp558
F0.1396201920192497
aF0.1396201920192497
aF0.1396201920192497
aF0.1396201920192497
aF0.1396201920192497
aI0
aF0.022658655865252272
aF0.1396201920192497
aF0.1396201920192497
aa(lp559
F0.19682791393453197
aF0.01586043032734008
aF0.19682791393453197
aF0.19682791393453197
aI0
aI0
aI0
aF0.19682791393453197
aF0.19682791393453197
aa(lp560
I0
aI0
aI0
aI0
aI0
aI1
aI0
aI0
aI0
aa(lp561
I0
aI0
aI0
aI0
aI1
aI0
aI0
aI0
aI0
aa(lp562
I0
aI0
aI0
aI1
aI0
aI0
aI0
aI0
aI0
aa(lp563
F0.13697000082206498
aF0.13697000082206498
aI0
aF0.13697000082206498
aF0.041209994245545084
aF0.13697000082206498
aF0.13697000082206498
aF0.13697000082206498
aF0.13697000082206498
aa(lp564
F0.19136060735605726
aI0
aI0
aF0.19136060735605726
aI0
aF0.19136060735605726
aF0.19136060735605726
aF0.04319696321971368
aF0.19136060735605726
aa(lp565
F0.3182275627564985
aI0
aI0
aF0.045317311730504545
aI0
aF0.3182275627564985
aI0
aI0
aF0.3182275627564985
aa(lp566
F0.04758129098202024
aI0
aI0
aI0
aI0
aF0.9524187090179798
aI0
aI0
aI0
aa(lp567
I0
aI0
aI1
aI0
aI0
aI0
aI0
aI0
aI0
aa(lp568
I0
aI1
aI0
aI0
aI0
aI0
aI0
aI0
aI0
aa(lp569
I0
aI0
aI0
aI0
aI0
aI0
aI1
aI0
aI0
aa(lp570
I0
aI0
aI0
aI0
aI0
aI0
aI0
aI0
aI1
aa(lp571
I0
aI0
aI0
aI0
aI0
aI1
aI0
aI0
aI0
aa(lp572
I0
aI1
aI0
aI0
aI0
aI0
aI0
aI0
aI0
aa(lp573
I0
aI0
aI0
aI0
aI1
aI0
aI0
aI0
aI0
aa(lp574
I0
aI0
aI0
aI0
aI0
aI0
aI1
aI0
aI0
aa(lp575
I0
aI0
aI0
aI0
aI0
aI0
aI0
aI0
aI1
aa(lp576
I1
aI0
aI0
aI0
aI0
aI0
aI0
aI0
aI0
aa(lp577
I0
aI0
aI1
aI0
aI0
aI0
aI0
aI0
aI0
aa(lp578
I0
aI0
aI0
aI1
aI0
aI0
aI0
aI0
aI0
aa(lp579
I0
aI0
aI0
aI0
aI0
aI0
aI0
aI1
aI0
aa(lp580
I0
aI0
aI0
aI0
aI0
aI1
aI0
aI0
aI0
aa(lp581
F0.13822889679788783
aF0.032397722414785265
aF0.13822889679788783
aF0.13822889679788783
aF0.13822889679788783
aF0.13822889679788783
aI0
aF0.13822889679788783
aF0.13822889679788783
aa(lp582
F0.19395769176926606
aI0
aF0.19395769176926606
aF0.19395769176926606
aI0
aF0.030211541153669697
aI0
aF0.19395769176926606
aF0.19395769176926606
aa(lp583
F0.3254031181696633
aI0
aF0.3254031181696633
aI0
aI0
aI0
aI0
aF0.02379064549101012
aF0.3254031181696633
aa(lp584
I0
aI0
aI0
aI0
aI0
aI0
aI1
aI0
aI0
aa(lp585
I0
aI0
aI0
aI0
aI1
aI0
aI0
aI0
aI0
aa(lp586
I0
aI0
aI0
aI1
aI0
aI0
aI0
aI0
aI0
aa(lp587
I1
aI0
aI0
aI0
aI0
aI0
aI0
aI0
aI0
aa(lp588
F0.13822889679788783
aF0.13822889679788783
aI0
aF0.13822889679788783
aF0.13822889679788783
aF0.032397722414785265
aF0.13822889679788783
aF0.13822889679788783
aF0.13822889679788783
aa(lp589
F0.030211541153669697
aI0
aI0
aF0.19395769176926606
aF0.19395769176926606
aI0
aF0.19395769176926606
aF0.19395769176926606
aF0.19395769176926606
aa(lp590
I0
aI0
aI0
aF0.3254031181696633
aI0
aI0
aF0.3254031181696633
aF0.02379064549101012
aF0.3254031181696633
aa(lp591
I0
aI0
aI1
aI0
aI0
aI0
aI0
aI0
aI0
aa(lp592
I0
aI1
aI0
aI0
aI0
aI0
aI0
aI0
aI0
aa(lp593
I0
aI0
aI0
aI0
aI1
aI0
aI0
aI0
aI0
aa(lp594
I0
aI0
aI0
aI0
aI0
aI0
aI1
aI0
aI0
aa(lp595
I0
aI0
aI1
aI0
aI0
aI0
aI0
aI0
aI0
aa(lp596
I0
aI0
aI0
aI0
aI0
aI0
aI0
aI0
aI1
aa(lp597
I0
aI0
aI0
aI0
aI0
aI1
aI0
aI0
aI0
aa(lp598
F0.028797975479809123
aF0.12140025306502385
aF0.12140025306502385
aF0.12140025306502385
aF0.12140025306502385
aF0.12140025306502385
aF0.12140025306502385
aF0.12140025306502385
aF0.12140025306502385
aa(lp599
I0
aF0.1623507322161424
aI0
aF0.1623507322161424
aF0.025895606703145453
aF0.1623507322161424
aF0.1623507322161424
aF0.1623507322161424
aF0.1623507322161424
aa(lp600
I0
aF0.24524187090179797
aI0
aF0.019032516392808098
aI0
aF0.24524187090179797
aF0.24524187090179797
aF0.24524187090179797
aI0
aa(lp601
I1
aI0
aI0
aI0
aI0
aI0
aI0
aI0
aI0
aa(lp602
I0
aI0
aI0
aI1
aI0
aI0
aI0
aI0
aI0
aa(lp603
I0
aI0
aI0
aI0
aI1
aI0
aI0
aI0
aI0
aa(lp604
I0
aI0
aI0
aI0
aI0
aI0
aI0
aI0
aI1
aa(lp605
F0.12042111175049498
aF0.12042111175049498
aF0.12042111175049498
aF0.12042111175049498
aF0.12042111175049498
aF0.12042111175049498
aF0.12042111175049498
aF0.036631105996040074
aF0.12042111175049498
aa(lp606
I0
aF0.0370259684740403
aF0.16049567192099326
aF0.16049567192099326
aF0.16049567192099326
aF0.16049567192099326
aF0.16049567192099326
aI0
aF0.16049567192099326
aa(lp607
I0
aI0
aF0.2409365376538991
aI0
aF0.2409365376538991
aF0.2409365376538991
aF0.03625384938440364
aI0
aF0.2409365376538991
aa(lp608
I0
aI0
aF0.03172086065468016
aI0
aI0
aF0.48413956967265986
aI0
aI0
aF0.48413956967265986
aa(lp609
F0.13822889679788783
aI0
aF0.13822889679788783
aF0.13822889679788783
aF0.13822889679788783
aF0.13822889679788783
aF0.13822889679788783
aF0.032397722414785265
aF0.13822889679788783
aa(lp610
F0.19395769176926606
aI0
aF0.19395769176926606
aF0.19395769176926606
aF0.19395769176926606
aF0.19395769176926606
aI0
aI0
aF0.030211541153669697
aa(lp611
I0
aI0
aF0.3254031181696633
aF0.02379064549101012
aF0.3254031181696633
aF0.3254031181696633
aI0
aI0
aI0
aa(lp612
I0
aI1
aI0
aI0
aI0
aI0
aI0
aI0
aI0
aa(lp613
I0
aI0
aI0
aI0
aI0
aI0
aI1
aI0
aI0
aa(lp614
I1
aI0
aI0
aI0
aI0
aI0
aI0
aI0
aI0
aa(lp615
I0
aI0
aI1
aI0
aI0
aI0
aI0
aI0
aI0
aa(lp616
F0.13697000082206498
aF0.041209994245545084
aI0
aF0.13697000082206498
aF0.13697000082206498
aF0.13697000082206498
aF0.13697000082206498
aF0.13697000082206498
aF0.13697000082206498
aa(lp617
F0.19136060735605726
aI0
aI0
aF0.19136060735605726
aF0.19136060735605726
aF0.04319696321971368
aF0.19136060735605726
aF0.19136060735605726
aI0
aa(lp618
I0
aI0
aI0
aF0.045317311730504545
aF0.3182275627564985
aI0
aF0.3182275627564985
aF0.3182275627564985
aI0
aa(lp619
I0
aI0
aI0
aI0
aF0.9524187090179798
aI0
aF0.04758129098202024
aI0
aI0
aa(lp620
I0
aI0
aI1
aI0
aI0
aI0
aI0
aI0
aI0
aa(lp621
I0
aI0
aI0
aI0
aI0
aI0
aI0
aI0
aI1
aa(lp622
I1
aI0
aI0
aI0
aI0
aI0
aI0
aI0
aI0
aa(lp623
I0
aI0
aI0
aI0
aI0
aI0
aI0
aI1
aI0
aa(lp624
I0
aI0
aI0
aI0
aI1
aI0
aI0
aI0
aI0
aa(lp625
F0.13697000082206498
aF0.041209994245545084
aF0.13697000082206498
aF0.13697000082206498
aF0.13697000082206498
aF0.13697000082206498
aF0.13697000082206498
aF0.13697000082206498
aI0
aa(lp626
F0.19136060735605726
aI0
aI0
aF0.19136060735605726
aF0.19136060735605726
aF0.19136060735605726
aF0.19136060735605726
aF0.04319696321971368
aI0
aa(lp627
F0.045317311730504545
aI0
aI0
aI0
aF0.3182275627564985
aF0.3182275627564985
aF0.3182275627564985
aI0
aI0
aa(lp628
I0
aI0
aI0
aI0
aI0
aF0.9524187090179798
aF0.04758129098202024
aI0
aI0
aa(lp629
I0
aI0
aI0
aI0
aI0
aI0
aI0
aI0
aI1
aa(lp630
I0
aI0
aI1
aI0
aI0
aI0
aI0
aI0
aI0
aa(lp631
I0
aI0
aI0
aI1
aI0
aI0
aI0
aI0
aI0
aa(lp632
I0
aI0
aI0
aI0
aI1
aI0
aI0
aI0
aI0
aa(lp633
I0
aI0
aI0
aI0
aI0
aI1
aI0
aI0
aI0
aa(lp634
I0
aI0
aI0
aI0
aI0
aI0
aI0
aI1
aI0
aa(lp635
I0
aI0
aI1
aI0
aI0
aI0
aI0
aI0
aI0
aa(lp636
I1
aI0
aI0
aI0
aI0
aI0
aI0
aI0
aI0
aa(lp637
I0
aI0
aI0
aI0
aI0
aI1
aI0
aI0
aI0
aa(lp638
I0
aI0
aI0
aI0
aI1
aI0
aI0
aI0
aI0
aa(lp639
I0
aI0
aI0
aI0
aI0
aI0
aI1
aI0
aI0
aa(lp640
I0
aI0
aI0
aI0
aI0
aI0
aI0
aI0
aI1
aa(lp641
I0
aI0
aI0
aI1
aI0
aI0
aI0
aI0
aI0
aa(lp642
I0
aI1
aI0
aI0
aI0
aI0
aI0
aI0
aI0
aa(lp643
I1
aI0
aI0
aI0
aI0
aI0
aI0
aI0
aI0
aa(lp644
I0
aI0
aI0
aI0
aI1
aI0
aI0
aI0
aI0
aa(lp645
I0
aI1
aI0
aI0
aI0
aI0
aI0
aI0
aI0
aa(lp646
I0
aI0
aI0
aI0
aI0
aI0
aI0
aI1
aI0
aa(lp647
F0.12042111175049498
aF0.12042111175049498
aF0.12042111175049498
aF0.036631105996040074
aF0.12042111175049498
aF0.12042111175049498
aF0.12042111175049498
aF0.12042111175049498
aF0.12042111175049498
aa(lp648
I0
aF0.16049567192099326
aF0.16049567192099326
aI0
aF0.16049567192099326
aF0.16049567192099326
aF0.0370259684740403
aF0.16049567192099326
aF0.16049567192099326
aa(lp649
I0
aF0.2409365376538991
aF0.2409365376538991
aI0
aI0
aF0.03625384938440364
aI0
aF0.2409365376538991
aF0.2409365376538991
aa(lp650
I0
aI0
aF0.03172086065468016
aI0
aI0
aI0
aI0
aF0.48413956967265986
aF0.48413956967265986
aa(lp651
F0.032397722414785265
aF0.13822889679788783
aF0.13822889679788783
aF0.13822889679788783
aF0.13822889679788783
aF0.13822889679788783
aF0.13822889679788783
aI0
aF0.13822889679788783
aa(lp652
I0
aF0.19395769176926606
aF0.19395769176926606
aF0.030211541153669697
aF0.19395769176926606
aF0.19395769176926606
aI0
aI0
aF0.19395769176926606
aa(lp653
I0
aI0
aF0.3254031181696633
aI0
aF0.3254031181696633
aF0.02379064549101012
aI0
aI0
aF0.3254031181696633
aa(lp654
I0
aI0
aI0
aI0
aI0
aI0
aI0
aI1
aI0
aa(lp655
I0
aI0
aI0
aI0
aI0
aI0
aI1
aI0
aI0
aa(lp656
I0
aI1
aI0
aI0
aI0
aI0
aI0
aI0
aI0
aa(lp657
I0
aI0
aI0
aI0
aI0
aI0
aI0
aI0
aI1
aa(lp658
I0
aF0.13697000082206498
aF0.13697000082206498
aF0.13697000082206498
aF0.13697000082206498
aF0.13697000082206498
aF0.13697000082206498
aF0.13697000082206498
aF0.041209994245545084
aa(lp659
I0
aF0.19136060735605726
aI0
aF0.19136060735605726
aF0.19136060735605726
aF0.04319696321971368
aF0.19136060735605726
aF0.19136060735605726
aI0
aa(lp660
I0
aF0.3182275627564985
aI0
aI0
aF0.045317311730504545
aI0
aF0.3182275627564985
aF0.3182275627564985
aI0
aa(lp661
I0
aF0.04758129098202024
aI0
aI0
aI0
aI0
aF0.9524187090179798
aI0
aI0
aa(lp662
I1
aI0
aI0
aI0
aI0
aI0
aI0
aI0
aI0
aa(lp663
I0
aI0
aI1
aI0
aI0
aI0
aI0
aI0
aI0
aa(lp664
I0
aI0
aI0
aI1
aI0
aI0
aI0
aI0
aI0
aa(lp665
I0
aI0
aI0
aI0
aI0
aI0
aI0
aI1
aI0
aa(lp666
I0
aI0
aI0
aI0
aI0
aI0
aI1
aI0
aI0
aa(lp667
F0.13697000082206498
aF0.13697000082206498
aF0.13697000082206498
aF0.041209994245545084
aF0.13697000082206498
aI0
aF0.13697000082206498
aF0.13697000082206498
aF0.13697000082206498
aa(lp668
F0.19136060735605726
aF0.19136060735605726
aF0.19136060735605726
aI0
aF0.04319696321971368
aI0
aF0.19136060735605726
aI0
aF0.19136060735605726
aa(lp669
F0.3182275627564985
aI0
aF0.3182275627564985
aI0
aI0
aI0
aF0.3182275627564985
aI0
aF0.045317311730504545
aa(lp670
I0
aI0
aF0.9524187090179798
aI0
aI0
aI0
aF0.04758129098202024
aI0
aI0
aa(lp671
I0
aI0
aI0
aI0
aI0
aI1
aI0
aI0
aI0
aa(lp672
I0
aI0
aI0
aI0
aI0
aI0
aI0
aI1
aI0
aa(lp673
I0
aI1
aI0
aI0
aI0
aI0
aI0
aI0
aI0
aa(lp674
I1
aI0
aI0
aI0
aI0
aI0
aI0
aI0
aI0
aa(lp675
I0
aI0
aI1
aI0
aI0
aI0
aI0
aI0
aI0
aa(lp676
I0
aI0
aI0
aI1
aI0
aI0
aI0
aI0
aI0
aa(lp677
I1
aI0
aI0
aI0
aI0
aI0
aI0
aI0
aI0
aa(lp678
I0
aI0
aI0
aI0
aI0
aI0
aI0
aI1
aI0
aa(lp679
I0
aI0
aI1
aI0
aI0
aI0
aI0
aI0
aI0
aa(lp680
I0
aI0
aI0
aI0
aI0
aI0
aI1
aI0
aI0
aa(lp681
I0
aI0
aI0
aI0
aI0
aI1
aI0
aI0
aI0
aa(lp682
I0
aI1
aI0
aI0
aI0
aI0
aI0
aI0
aI0
aa(lp683
I0
aI0
aI0
aI0
aI1
aI0
aI0
aI0
aI0
aa(lp684
I0
aI0
aI0
aI0
aI0
aI0
aI0
aI0
aI1
aa.